libruby-3.2.so.3.2 libruby3.2 #MINVER#
* Build-Depends-Package: ruby3.2-dev
 OnigDefaultCaseFoldFlag@Base 3.2.0
 OnigDefaultSyntax@Base 3.2.0
 OnigEncAsciiCtypeTable@Base 3.2.0
 OnigEncAsciiToLowerCaseTable@Base 3.2.0
 OnigEncAsciiToUpperCaseTable@Base 3.2.0
 OnigEncDefaultCharEncoding@Base 3.2.0
 OnigEncISO_8859_1_ToLowerCaseTable@Base 3.2.0
 OnigEncISO_8859_1_ToUpperCaseTable@Base 3.2.0
 OnigEncodingASCII@Base 3.2.0
 OnigSyntaxASIS@Base 3.2.0
 OnigSyntaxEmacs@Base 3.2.0
 OnigSyntaxGnuRegex@Base 3.2.0
 OnigSyntaxGrep@Base 3.2.0
 OnigSyntaxJava@Base 3.2.0
 OnigSyntaxPerl58@Base 3.2.0
 OnigSyntaxPerl58_NG@Base 3.2.0
 OnigSyntaxPerl@Base 3.2.0
 OnigSyntaxPosixBasic@Base 3.2.0
 OnigSyntaxPosixExtended@Base 3.2.0
 OnigSyntaxPython@Base 3.2.0
 OnigSyntaxRuby@Base 3.2.0
 RUBY_IO_BUFFER_DEFAULT_SIZE@Base 3.2.0
 RUBY_IO_BUFFER_PAGE_SIZE@Base 3.2.0
 _ZN100_$LT$alloc..ffi..c_str..CString$u20$as$u20$core..convert..From$LT$$RF$core..ffi..c_str..CStr$GT$$GT$4from17h41a08df79af7b94dE@Base 3.2.4-0nkmi1~noble
 _ZN100_$LT$std..sys..unix..args..Args$u20$as$u20$core..iter..traits..double_ended..DoubleEndedIterator$GT$9next_back17h06fd71d2ca60391fE@Base 3.2.4-0nkmi1~noble
 _ZN100_$LT$std..sys..unix..time..SystemTime$u20$as$u20$core..convert..From$LT$libc..unix..timespec$GT$$GT$4from17h1d26eba73a7a963bE@Base 3.2.4-0nkmi1~noble
 _ZN101_$LT$std..os..unix..net..addr..SocketAddr$u20$as$u20$std..os..net..linux_ext..addr..SocketAddrExt$GT$16as_abstract_name17h3eec353a5ad1f0a5E@Base 3.2.4-0nkmi1~noble
 _ZN102_$LT$std..panicking..begin_panic_handler..FormatStringPayload$u20$as$u20$core..panic..PanicPayload$GT$3get17hda494889ce386084E@Base 3.2.4-0nkmi1~noble
 _ZN102_$LT$std..panicking..begin_panic_handler..FormatStringPayload$u20$as$u20$core..panic..PanicPayload$GT$8take_box17hc5df1b637253fe17E@Base 3.2.4-0nkmi1~noble
 _ZN104_$LT$std..os..unix..net..ancillary..ScmCredentials$u20$as$u20$core..iter..traits..iterator..Iterator$GT$4next17h77f57cee42f54b17E@Base 3.2.4-0nkmi1~noble
 _ZN104_$LT$std..sys_common..net..LookupHost$u20$as$u20$core..convert..TryFrom$LT$$LP$$RF$str$C$u16$RP$$GT$$GT$8try_from17h906568baad2b1b98E@Base 3.2.4-0nkmi1~noble
 _ZN105_$LT$core..slice..ascii..EscapeAscii$u20$as$u20$core..iter..traits..double_ended..DoubleEndedIterator$GT$9next_back17h47f169548888a27eE@Base 3.2.4-0nkmi1~noble
 _ZN105_$LT$dyn$u20$core..any..Any$u2b$core..marker..Send$u2b$core..marker..Sync$u20$as$u20$core..fmt..Debug$GT$3fmt17h629384981cc58e6fE@Base 3.2.4-0nkmi1~noble
 _ZN106_$LT$$LT$std..path..Iter$u20$as$u20$core..fmt..Debug$GT$..fmt..DebugHelper$u20$as$u20$core..fmt..Debug$GT$3fmt17h417834610fa2d939E@Base 3.2.4-0nkmi1~noble
 _ZN106_$LT$alloc..boxed..Box$LT$dyn$u20$core..error..Error$GT$$u20$as$u20$core..convert..From$LT$$RF$str$GT$$GT$4from17h15b9917f3be8ec38E@Base 3.2.4-0nkmi1~noble
 _ZN111_$LT$std..io..buffered..bufwriter..BufWriter$LT$W$GT$..flush_buf..BufGuard$u20$as$u20$core..ops..drop..Drop$GT$4drop17h62dc0893a28bbc25E@Base 3.2.4-0nkmi1~noble
 _ZN111_$LT$std..sys..unix..process..process_common..CommandArgs$u20$as$u20$core..iter..traits..iterator..Iterator$GT$4next17h96fd89960b621ec9E@Base 3.2.4-0nkmi1~noble
 _ZN111_$LT$std..sys..unix..process..process_common..CommandArgs$u20$as$u20$core..iter..traits..iterator..Iterator$GT$9size_hint17h613f084bcce598c0E@Base 3.2.4-0nkmi1~noble
 _ZN112_$LT$$LT$std..path..Components$u20$as$u20$core..fmt..Debug$GT$..fmt..DebugHelper$u20$as$u20$core..fmt..Debug$GT$3fmt17hbb26dbccebb62fc9E@Base 3.2.4-0nkmi1~noble
 _ZN114_$LT$std..backtrace_rs..symbolize..gimli..parse_running_mmaps..MapsEntry$u20$as$u20$core..str..traits..FromStr$GT$8from_str17ha1f9e861a8c33561E@Base 3.2.4-0nkmi1~noble
 _ZN116_$LT$core..net..ip_addr..Ipv4Addr$u20$as$u20$core..ops..bit..BitOrAssign$LT$$RF$core..net..ip_addr..Ipv4Addr$GT$$GT$12bitor_assign17h17b9fe6482744a26E@Base 3.2.4-0nkmi1~noble
 _ZN116_$LT$core..net..ip_addr..Ipv6Addr$u20$as$u20$core..ops..bit..BitOrAssign$LT$$RF$core..net..ip_addr..Ipv6Addr$GT$$GT$12bitor_assign17h16efdf2a974a971bE@Base 3.2.4-0nkmi1~noble
 _ZN117_$LT$core..net..ip_addr..Ipv4Addr$u20$as$u20$core..ops..bit..BitAndAssign$LT$$RF$core..net..ip_addr..Ipv4Addr$GT$$GT$13bitand_assign17hdd91f65f0a321ec8E@Base 3.2.4-0nkmi1~noble
 _ZN117_$LT$core..net..ip_addr..Ipv6Addr$u20$as$u20$core..ops..bit..BitAndAssign$LT$$RF$core..net..ip_addr..Ipv6Addr$GT$$GT$13bitand_assign17h24beb9c0bd4a7ff8E@Base 3.2.4-0nkmi1~noble
 _ZN11miniz_oxide6shared14update_adler3217hc6ca32962339776cE@Base 3.2.4-0nkmi1~noble
 _ZN11miniz_oxide7inflate4core10decompress17h0b6e1e2c6f7a31dfE@Base 3.2.4-0nkmi1~noble
 _ZN11miniz_oxide7inflate6stream7inflate17h033fa94da25a2047E@Base 3.2.4-0nkmi1~noble
 _ZN120_$LT$alloc..boxed..Box$LT$dyn$u20$core..error..Error$GT$$u20$as$u20$core..convert..From$LT$alloc..string..String$GT$$GT$4from17hf14cda473621b22cE@Base 3.2.4-0nkmi1~noble
 _ZN121_$LT$std..process..Child$u20$as$u20$std..sys_common..IntoInner$LT$std..sys..unix..process..process_inner..Process$GT$$GT$10into_inner17h5d14459fcd95ff2bE@Base 3.2.4-0nkmi1~noble
 _ZN122_$LT$std..sys..unix..process..process_common..CommandArgs$u20$as$u20$core..iter..traits..exact_size..ExactSizeIterator$GT$3len17h9cf6d9fe9a5ae658E@Base 3.2.4-0nkmi1~noble
 _ZN122_$LT$std..sys..unix..process..process_common..CommandArgs$u20$as$u20$core..iter..traits..exact_size..ExactSizeIterator$GT$8is_empty17hff0fe3bf41ef8d5dE@Base 3.2.4-0nkmi1~noble
 _ZN128_$LT$alloc..boxed..Box$LT$dyn$u20$core..error..Error$GT$$u20$as$u20$core..convert..From$LT$alloc..borrow..Cow$LT$str$GT$$GT$$GT$4from17h6222c6bae116df20E@Base 3.2.4-0nkmi1~noble
 _ZN14rustc_demangle12try_demangle17h936e7c424574d752E@Base 3.2.4-0nkmi1~noble
 _ZN14rustc_demangle8demangle17he2131fbd88505946E@Base 3.2.4-0nkmi1~noble
 _ZN174_$LT$alloc..boxed..Box$LT$dyn$u20$core..error..Error$u2b$core..marker..Send$u2b$core..marker..Sync$GT$$u20$as$u20$core..convert..From$LT$alloc..borrow..Cow$LT$str$GT$$GT$$GT$4from17hccb9f854476defc4E@Base 3.2.4-0nkmi1~noble
 _ZN176_$LT$std..sys..unix..process..process_inner..$LT$impl$u20$std..sys..unix..process..process_common..Command$GT$..posix_spawn..PosixSpawnattr$u20$as$u20$core..ops..drop..Drop$GT$4drop17h5eaeea6a17ade4d3E@Base 3.2.4-0nkmi1~noble
 _ZN183_$LT$std..process..Child$u20$as$u20$std..sys_common..FromInner$LT$$LP$std..sys..unix..process..process_inner..Process$C$std..sys..unix..process..process_common..StdioPipes$RP$$GT$$GT$10from_inner17h8c6ba175c1446bcdE@Base 3.2.4-0nkmi1~noble
 _ZN183_$LT$std..sys..unix..process..process_inner..$LT$impl$u20$std..sys..unix..process..process_common..Command$GT$..posix_spawn..PosixSpawnFileActions$u20$as$u20$core..ops..drop..Drop$GT$4drop17hc62d8e79ff41486aE@Base 3.2.4-0nkmi1~noble
 _ZN221_$LT$$LT$alloc..boxed..Box$LT$dyn$u20$core..error..Error$u2b$core..marker..Send$u2b$core..marker..Sync$GT$$u20$as$u20$core..convert..From$LT$alloc..string..String$GT$$GT$..from..StringError$u20$as$u20$core..fmt..Debug$GT$3fmt17hbb9a3322fac24c7eE@Base 3.2.4-0nkmi1~noble
 _ZN223_$LT$$LT$alloc..boxed..Box$LT$dyn$u20$core..error..Error$u2b$core..marker..Send$u2b$core..marker..Sync$GT$$u20$as$u20$core..convert..From$LT$alloc..string..String$GT$$GT$..from..StringError$u20$as$u20$core..fmt..Display$GT$3fmt17h8f1fadde1fa82fc9E@Base 3.2.4-0nkmi1~noble
 _ZN3std10sys_common11thread_info3set17hefb641ac6a3cb980E@Base 3.2.4-0nkmi1~noble
 _ZN3std10sys_common2fs10try_exists17h089290d2c4789797E@Base 3.2.4-0nkmi1~noble
 _ZN3std10sys_common3net11TcpListener4bind17h7844795f0ac98eb7E@Base 3.2.4-0nkmi1~noble
 _ZN3std10sys_common3net154_$LT$impl$u20$std..sys_common..IntoInner$LT$$LP$std..sys_common..net..SocketAddrCRepr$C$u32$RP$$GT$$u20$for$u20$$RF$core..net..socket_addr..SocketAddr$GT$10into_inner17hbc4dd178531710afE@Base 3.2.4-0nkmi1~noble
 _ZN3std10sys_common3net9TcpStream7connect17ha628f4e90e8b5c67E@Base 3.2.4-0nkmi1~noble
 _ZN3std10sys_common3net9UdpSocket4bind17h3ceffd2eaa4cd7a7E@Base 3.2.4-0nkmi1~noble
 _ZN3std10sys_common3net9UdpSocket7connect17h38076021e0821654E@Base 3.2.4-0nkmi1~noble
 _ZN3std10sys_common3net9UdpSocket7send_to17h60288df75b7de8d3E@Base 3.2.4-0nkmi1~noble
 _ZN3std10sys_common4wtf816slice_error_fail17he992286df21ceda7E@Base 3.2.4-0nkmi1~noble
 _ZN3std10sys_common4wtf87Wtf8Buf25push_code_point_unchecked17hebb0781fc4272e1eE@Base 3.2.4-0nkmi1~noble
 _ZN3std10sys_common6thread9min_stack17h08b2c7bdd79020daE@Base 3.2.4-0nkmi1~noble
 _ZN3std10sys_common7process10CommandEnv3set17he0ac916fe590447bE@Base 3.2.4-0nkmi1~noble
 _ZN3std10sys_common7process10CommandEnv6remove17haf9b14830cf95683E@Base 3.2.4-0nkmi1~noble
 _ZN3std10sys_common9backtrace4lock17h85650cb97406ea8aE@Base 3.2.4-0nkmi1~noble
 _ZN3std11collections4hash3map11RandomState3new4KEYS7__getit5__KEY17hdc6c78657bec2905E@Base 3.2.4-0nkmi1~noble
 _ZN3std12backtrace_rs9symbolize5gimli7resolve17h4192438a7cc9f263E@Base 3.2.4-0nkmi1~noble
 _ZN3std12backtrace_rs9symbolize6Symbol12filename_raw17h5f7b743080aa2a93E@Base 3.2.4-0nkmi1~noble
 _ZN3std12backtrace_rs9symbolize6Symbol4name17h914415ca819ab1bfE@Base 3.2.4-0nkmi1~noble
 _ZN3std12backtrace_rs9symbolize6Symbol5colno17h6afa2bfee0fc67d6E@Base 3.2.4-0nkmi1~noble
 _ZN3std12backtrace_rs9symbolize6Symbol6lineno17hd433a888fd4790b6E@Base 3.2.4-0nkmi1~noble
 _ZN3std2fs10DirBuilder7_create17hff71b2b5330eab05E@Base 3.2.4-0nkmi1~noble
 _ZN3std2fs11OpenOptions5_open17h9bfc7544cfaa7db3E@Base 3.2.4-0nkmi1~noble
 _ZN3std2fs14read_to_string5inner17h4dcb624799e6f2c0E@Base 3.2.4-0nkmi1~noble
 _ZN3std2fs4File15set_permissions17h809bc3cf6bf5bcd6E@Base 3.2.4-0nkmi1~noble
 _ZN3std2fs4File7set_len17haa38a669aee22a82E@Base 3.2.4-0nkmi1~noble
 _ZN3std2fs4File8metadata17h79b8c9bf5e9232e0E@Base 3.2.4-0nkmi1~noble
 _ZN3std2fs4File8sync_all17hfbf973dba4471920E@Base 3.2.4-0nkmi1~noble
 _ZN3std2fs4File9set_times17h5d6ee9010dda1b1fE@Base 3.2.4-0nkmi1~noble
 _ZN3std2fs4File9sync_data17hf12501944bdc6074E@Base 3.2.4-0nkmi1~noble
 _ZN3std2fs4File9try_clone17h75a49f5931ec2e06E@Base 3.2.4-0nkmi1~noble
 _ZN3std2fs4read5inner17hd7bfe9ea6217277aE@Base 3.2.4-0nkmi1~noble
 _ZN3std2fs5write5inner17h2f49494ef4b49e61E@Base 3.2.4-0nkmi1~noble
 _ZN3std2fs81_$LT$impl$u20$std..io..Read$u20$for$u20$alloc..sync..Arc$LT$std..fs..File$GT$$GT$11read_to_end17h1779b04cbbce14aaE@Base 3.2.4-0nkmi1~noble
 _ZN3std2fs81_$LT$impl$u20$std..io..Read$u20$for$u20$alloc..sync..Arc$LT$std..fs..File$GT$$GT$13read_vectored17h610022ea8dabe8c2E@Base 3.2.4-0nkmi1~noble
 _ZN3std2fs81_$LT$impl$u20$std..io..Read$u20$for$u20$alloc..sync..Arc$LT$std..fs..File$GT$$GT$14read_to_string17ha469fcf1d13917e2E@Base 3.2.4-0nkmi1~noble
 _ZN3std2fs81_$LT$impl$u20$std..io..Read$u20$for$u20$alloc..sync..Arc$LT$std..fs..File$GT$$GT$4read17h59ad0fdc6e851f87E@Base 3.2.4-0nkmi1~noble
 _ZN3std2fs81_$LT$impl$u20$std..io..Read$u20$for$u20$alloc..sync..Arc$LT$std..fs..File$GT$$GT$8read_buf17h896097cf8550468aE@Base 3.2.4-0nkmi1~noble
 _ZN3std2fs81_$LT$impl$u20$std..io..Seek$u20$for$u20$alloc..sync..Arc$LT$std..fs..File$GT$$GT$4seek17hf5bac5afe35d101bE@Base 3.2.4-0nkmi1~noble
 _ZN3std2fs82_$LT$impl$u20$std..io..Write$u20$for$u20$alloc..sync..Arc$LT$std..fs..File$GT$$GT$14write_vectored17hb58a2223bf905737E@Base 3.2.4-0nkmi1~noble
 _ZN3std2fs82_$LT$impl$u20$std..io..Write$u20$for$u20$alloc..sync..Arc$LT$std..fs..File$GT$$GT$5write17hbc13855848b835c3E@Base 3.2.4-0nkmi1~noble
 _ZN3std2fs8DirEntry4path17h443437d36858202bE@Base 3.2.4-0nkmi1~noble
 _ZN3std2fs8DirEntry8metadata17h3726d43908549e2bE@Base 3.2.4-0nkmi1~noble
 _ZN3std2fs8DirEntry9file_name17h20c12dace9312c7aE@Base 3.2.4-0nkmi1~noble
 _ZN3std2fs8DirEntry9file_type17h45b9b053216033e1E@Base 3.2.4-0nkmi1~noble
 _ZN3std2fs8Metadata7created17h81b6da16534cc92dE@Base 3.2.4-0nkmi1~noble
 _ZN3std2fs8Metadata8accessed17h0bb259de56ede181E@Base 3.2.4-0nkmi1~noble
 _ZN3std2fs8Metadata8modified17hdab69d6cab91bfe6E@Base 3.2.4-0nkmi1~noble
 _ZN3std2io5error14repr_bitpacked4Repr3new17hb0b7ad417179b225E@Base 3.2.4-0nkmi1~noble
 _ZN3std2io5error5Error4_new17hc5f9ac2887a6e023E@Base 3.2.4-0nkmi1~noble
 _ZN3std2io5error83_$LT$impl$u20$core..fmt..Debug$u20$for$u20$std..io..error..repr_bitpacked..Repr$GT$3fmt17h831c3657cf61f41cE@Base 3.2.4-0nkmi1~noble
 _ZN3std2io5impls83_$LT$impl$u20$std..io..Write$u20$for$u20$core..io..borrowed_buf..BorrowedCursor$GT$5write17hf23536c48ffff209E@Base 3.2.4-0nkmi1~noble
 _ZN3std2io5stdio18set_output_capture17h5a974ce33e44ef12E@Base 3.2.4-0nkmi1~noble
 _ZN3std2io5stdio23attempt_print_to_stderr17he94a9ed196e84672E@Base 3.2.4-0nkmi1~noble
 _ZN3std2io5stdio5Stdin4lock17h80c28bf7463cb1e7E@Base 3.2.4-0nkmi1~noble
 _ZN3std2io5stdio5Stdin5lines17he3c0614199d636b7E@Base 3.2.4-0nkmi1~noble
 _ZN3std2io5stdio5Stdin9read_line17h9cdf72e0d8f55d92E@Base 3.2.4-0nkmi1~noble
 _ZN3std2io5stdio5stdin17h34b7ba410ed07635E@Base 3.2.4-0nkmi1~noble
 _ZN3std2io5stdio6Stderr4lock17h275ec682978d2751E@Base 3.2.4-0nkmi1~noble
 _ZN3std2io5stdio6Stdout4lock17hc82bac204eda5bf5E@Base 3.2.4-0nkmi1~noble
 _ZN3std2io5stdio6_print17hfdc14195f94a0b4fE@Base 3.2.4-0nkmi1~noble
 _ZN3std2io5stdio6stderr8INSTANCE17h0bee995dc1c88338E@Base 3.2.4-0nkmi1~noble
 _ZN3std2io5stdio6stdout17h26471bb9735014c4E@Base 3.2.4-0nkmi1~noble
 _ZN3std2io5stdio7_eprint17h0cc24c9f4690e771E@Base 3.2.4-0nkmi1~noble
 _ZN3std2io8buffered9bufwriter18BufWriter$LT$W$GT$9flush_buf8BufGuard9remaining17h8afce4cb64fabec0E@Base 3.2.4-0nkmi1~noble
 _ZN3std2os2fd5owned10BorrowedFd18try_clone_to_owned17h18fe5ad154403ef3E@Base 3.2.4-0nkmi1~noble
 _ZN3std2os2fd5owned7OwnedFd9try_clone17h3750f8aeff968176E@Base 3.2.4-0nkmi1~noble
 _ZN3std2os4unix3net4addr10SocketAddr10is_unnamed17hf083ef42494535cdE@Base 3.2.4-0nkmi1~noble
 _ZN3std2os4unix3net4addr10SocketAddr11as_pathname17h9449571d42e67df5E@Base 3.2.4-0nkmi1~noble
 _ZN3std2os4unix3net4addr11sockaddr_un17h6cf4cbeaac89d2f1E@Base 3.2.4-0nkmi1~noble
 _ZN3std2os4unix3net6stream10UnixStream10local_addr17h48357de33105d273E@Base 3.2.4-0nkmi1~noble
 _ZN3std2os4unix3net6stream10UnixStream10take_error17h6fcfd097ab7d3f7cE@Base 3.2.4-0nkmi1~noble
 _ZN3std2os4unix3net6stream10UnixStream12connect_addr17h894320cee2bc6687E@Base 3.2.4-0nkmi1~noble
 _ZN3std2os4unix3net6stream10UnixStream12read_timeout17h38741cfd52d054cdE@Base 3.2.4-0nkmi1~noble
 _ZN3std2os4unix3net6stream10UnixStream12set_passcred17he0643f2c11a95ef3E@Base 3.2.4-0nkmi1~noble
 _ZN3std2os4unix3net6stream10UnixStream13write_timeout17h05631f51c5089a42E@Base 3.2.4-0nkmi1~noble
 _ZN3std2os4unix3net6stream10UnixStream15set_nonblocking17h12f39683b04f8368E@Base 3.2.4-0nkmi1~noble
 _ZN3std2os4unix3net6stream10UnixStream16set_read_timeout17h984b919b2a1b8cadE@Base 3.2.4-0nkmi1~noble
 _ZN3std2os4unix3net6stream10UnixStream17set_write_timeout17h7a721f9a683df0e2E@Base 3.2.4-0nkmi1~noble
 _ZN3std2os4unix3net6stream10UnixStream28recv_vectored_with_ancillary17h4ee3a1562eb6c4a5E@Base 3.2.4-0nkmi1~noble
 _ZN3std2os4unix3net6stream10UnixStream28send_vectored_with_ancillary17h85a36dac7012705dE@Base 3.2.4-0nkmi1~noble
 _ZN3std2os4unix3net6stream10UnixStream4pair17he57f0b9a5670e16cE@Base 3.2.4-0nkmi1~noble
 _ZN3std2os4unix3net6stream10UnixStream4peek17h9b99285f6b46efb4E@Base 3.2.4-0nkmi1~noble
 _ZN3std2os4unix3net6stream10UnixStream8passcred17he05983d9d1011962E@Base 3.2.4-0nkmi1~noble
 _ZN3std2os4unix3net6stream10UnixStream8set_mark17h954a47669b340e23E@Base 3.2.4-0nkmi1~noble
 _ZN3std2os4unix3net6stream10UnixStream8shutdown17hf8be4a55e3126321E@Base 3.2.4-0nkmi1~noble
 _ZN3std2os4unix3net6stream10UnixStream9peer_addr17hedc7adb6009ee957E@Base 3.2.4-0nkmi1~noble
 _ZN3std2os4unix3net6stream10UnixStream9peer_cred17h2280eb42f1e195b9E@Base 3.2.4-0nkmi1~noble
 _ZN3std2os4unix3net6stream10UnixStream9try_clone17h98054c4a544adda7E@Base 3.2.4-0nkmi1~noble
 _ZN3std2os4unix3net8datagram12UnixDatagram10local_addr17hb62d7b7d42a3aecdE@Base 3.2.4-0nkmi1~noble
 _ZN3std2os4unix3net8datagram12UnixDatagram10take_error17h754624284024c37fE@Base 3.2.4-0nkmi1~noble
 _ZN3std2os4unix3net8datagram12UnixDatagram12connect_addr17h0c3efa8ebded2f4fE@Base 3.2.4-0nkmi1~noble
 _ZN3std2os4unix3net8datagram12UnixDatagram12read_timeout17h485f5a7183f33c9dE@Base 3.2.4-0nkmi1~noble
 _ZN3std2os4unix3net8datagram12UnixDatagram12send_to_addr17h853a6c8be7c51b0dE@Base 3.2.4-0nkmi1~noble
 _ZN3std2os4unix3net8datagram12UnixDatagram12set_passcred17hb1f7c745a4085a0eE@Base 3.2.4-0nkmi1~noble
 _ZN3std2os4unix3net8datagram12UnixDatagram13write_timeout17h628d7a91915c1917E@Base 3.2.4-0nkmi1~noble
 _ZN3std2os4unix3net8datagram12UnixDatagram15set_nonblocking17h1134fd0450669cf2E@Base 3.2.4-0nkmi1~noble
 _ZN3std2os4unix3net8datagram12UnixDatagram16set_read_timeout17h86261d9c4a09d1c5E@Base 3.2.4-0nkmi1~noble
 _ZN3std2os4unix3net8datagram12UnixDatagram17set_write_timeout17h10c94564417d9616E@Base 3.2.4-0nkmi1~noble
 _ZN3std2os4unix3net8datagram12UnixDatagram28recv_vectored_with_ancillary17h983735509d3e60e8E@Base 3.2.4-0nkmi1~noble
 _ZN3std2os4unix3net8datagram12UnixDatagram28send_vectored_with_ancillary17h8630f316489b6cb2E@Base 3.2.4-0nkmi1~noble
 _ZN3std2os4unix3net8datagram12UnixDatagram33recv_vectored_with_ancillary_from17hc1bb188ac14266d5E@Base 3.2.4-0nkmi1~noble
 _ZN3std2os4unix3net8datagram12UnixDatagram4pair17h5d342169d0533950E@Base 3.2.4-0nkmi1~noble
 _ZN3std2os4unix3net8datagram12UnixDatagram4peek17h99564f341cceb3f4E@Base 3.2.4-0nkmi1~noble
 _ZN3std2os4unix3net8datagram12UnixDatagram4recv17h440eec8f93d7d597E@Base 3.2.4-0nkmi1~noble
 _ZN3std2os4unix3net8datagram12UnixDatagram4send17hba1bac8e870a47f9E@Base 3.2.4-0nkmi1~noble
 _ZN3std2os4unix3net8datagram12UnixDatagram7unbound17he84b1ac77f868b65E@Base 3.2.4-0nkmi1~noble
 _ZN3std2os4unix3net8datagram12UnixDatagram8passcred17ha54efb9dc0187b17E@Base 3.2.4-0nkmi1~noble
 _ZN3std2os4unix3net8datagram12UnixDatagram8set_mark17h5c1e8eca0f60f223E@Base 3.2.4-0nkmi1~noble
 _ZN3std2os4unix3net8datagram12UnixDatagram8shutdown17h6ae640e2c7c6b942E@Base 3.2.4-0nkmi1~noble
 _ZN3std2os4unix3net8datagram12UnixDatagram9bind_addr17h62296b2126a333d5E@Base 3.2.4-0nkmi1~noble
 _ZN3std2os4unix3net8datagram12UnixDatagram9peek_from17hf36dfa4e263cce06E@Base 3.2.4-0nkmi1~noble
 _ZN3std2os4unix3net8datagram12UnixDatagram9peer_addr17h18b344c7223e0449E@Base 3.2.4-0nkmi1~noble
 _ZN3std2os4unix3net8datagram12UnixDatagram9recv_from17h48b193fdf1df6aa9E@Base 3.2.4-0nkmi1~noble
 _ZN3std2os4unix3net8datagram12UnixDatagram9try_clone17h94c4b27bf8fa6227E@Base 3.2.4-0nkmi1~noble
 _ZN3std2os4unix3net8listener12UnixListener10local_addr17h9e003cd51f983bc3E@Base 3.2.4-0nkmi1~noble
 _ZN3std2os4unix3net8listener12UnixListener10take_error17h2b28107b48d1beebE@Base 3.2.4-0nkmi1~noble
 _ZN3std2os4unix3net8listener12UnixListener15set_nonblocking17h60e974c476e8ce6bE@Base 3.2.4-0nkmi1~noble
 _ZN3std2os4unix3net8listener12UnixListener6accept17h78c83db3abf388c5E@Base 3.2.4-0nkmi1~noble
 _ZN3std2os4unix3net8listener12UnixListener9bind_addr17hd5b0af9432676911E@Base 3.2.4-0nkmi1~noble
 _ZN3std2os4unix3net8listener12UnixListener9try_clone17h98a18564a5816dc8E@Base 3.2.4-0nkmi1~noble
 _ZN3std2os4unix3net9ancillary15SocketAncillary7add_fds17h27e369537867902fE@Base 3.2.4-0nkmi1~noble
 _ZN3std2os4unix3net9ancillary15SocketAncillary8messages17ha5f6aeb3eaf4f1e1E@Base 3.2.4-0nkmi1~noble
 _ZN3std2os4unix3net9ancillary15SocketAncillary9add_creds17h343179eee35fe922E@Base 3.2.4-0nkmi1~noble
 _ZN3std2os4unix3net9ancillary31send_vectored_with_ancillary_to17hadb6adecd668d410E@Base 3.2.4-0nkmi1~noble
 _ZN3std2os4unix5ucred10impl_linux9peer_cred17h811e68a401b833bcE@Base 3.2.4-0nkmi1~noble
 _ZN3std2os4unix7process9parent_id17h470ebd005e9c2412E@Base 3.2.4-0nkmi1~noble
 _ZN3std2rt19lang_start_internal17h8fc8e9636333b06eE@Base 3.2.4-0nkmi1~noble
 _ZN3std3env11_remove_var17hab0d57d44b1929dfE@Base 3.2.4-0nkmi1~noble
 _ZN3std3env11current_dir17hba7ab96c19019007E@Base 3.2.4-0nkmi1~noble
 _ZN3std3env11current_exe17h324b9d7096c73704E@Base 3.2.4-0nkmi1~noble
 _ZN3std3env4_var17h36374bf386688fdaE@Base 3.2.4-0nkmi1~noble
 _ZN3std3env4args17ha68d7b7f3b38dd11E@Base 3.2.4-0nkmi1~noble
 _ZN3std3env4vars17h8948181c2197f3dbE@Base 3.2.4-0nkmi1~noble
 _ZN3std3env7_var_os17h055f89151c5f5e7dE@Base 3.2.4-0nkmi1~noble
 _ZN3std3env7args_os17h1821865b5daa03bcE@Base 3.2.4-0nkmi1~noble
 _ZN3std3env7vars_os17he700e4c211336cb4E@Base 3.2.4-0nkmi1~noble
 _ZN3std3env8_set_var17h976539184919c963E@Base 3.2.4-0nkmi1~noble
 _ZN3std3env8home_dir17h79f91cdc411f299fE@Base 3.2.4-0nkmi1~noble
 _ZN3std3env8temp_dir17he67e803729feba71E@Base 3.2.4-0nkmi1~noble
 _ZN3std3ffi6os_str5OsStr18to_ascii_lowercase17h7c560b963dc58c73E@Base 3.2.4-0nkmi1~noble
 _ZN3std3ffi6os_str5OsStr18to_ascii_uppercase17he90ae26912ae9eaaE@Base 3.2.4-0nkmi1~noble
 _ZN3std3ffi6os_str8OsString17into_boxed_os_str17h3c7e2aa91cb7a0c7E@Base 3.2.4-0nkmi1~noble
 _ZN3std3ffi6os_str95_$LT$impl$u20$core..convert..TryFrom$LT$$RF$std..ffi..os_str..OsStr$GT$$u20$for$u20$$RF$str$GT$8try_from17h0051a5da4d90af2aE@Base 3.2.4-0nkmi1~noble
 _ZN3std3net11socket_addr136_$LT$impl$u20$std..sys_common..FromInner$LT$libc..unix..linux_like..sockaddr_in$GT$$u20$for$u20$core..net..socket_addr..SocketAddrV4$GT$10from_inner17hd8599a8dcd940b9bE@Base 3.2.4-0nkmi1~noble
 _ZN3std3net11socket_addr136_$LT$impl$u20$std..sys_common..IntoInner$LT$libc..unix..linux_like..sockaddr_in$GT$$u20$for$u20$core..net..socket_addr..SocketAddrV4$GT$10into_inner17h5d5fc18d129cb343E@Base 3.2.4-0nkmi1~noble
 _ZN3std3net11socket_addr137_$LT$impl$u20$std..sys_common..FromInner$LT$libc..unix..linux_like..sockaddr_in6$GT$$u20$for$u20$core..net..socket_addr..SocketAddrV6$GT$10from_inner17ha84a511e9bb498e4E@Base 3.2.4-0nkmi1~noble
 _ZN3std3net11socket_addr137_$LT$impl$u20$std..sys_common..IntoInner$LT$libc..unix..linux_like..sockaddr_in6$GT$$u20$for$u20$core..net..socket_addr..SocketAddrV6$GT$10into_inner17hd809002fd5154a46E@Base 3.2.4-0nkmi1~noble
 _ZN3std3net3tcp11TcpListener10local_addr17h5eb87d3f4c2bec5fE@Base 3.2.4-0nkmi1~noble
 _ZN3std3net3tcp11TcpListener10take_error17h0f30b1d4c6300162E@Base 3.2.4-0nkmi1~noble
 _ZN3std3net3tcp11TcpListener11set_only_v617hab7e9ff5b0d35602E@Base 3.2.4-0nkmi1~noble
 _ZN3std3net3tcp11TcpListener15set_nonblocking17h6059e4f505a21907E@Base 3.2.4-0nkmi1~noble
 _ZN3std3net3tcp11TcpListener3ttl17h9a0501e093591bddE@Base 3.2.4-0nkmi1~noble
 _ZN3std3net3tcp11TcpListener6accept17h9865d5d0fd3a2a4cE@Base 3.2.4-0nkmi1~noble
 _ZN3std3net3tcp11TcpListener7only_v617h340f839f0b44d1e3E@Base 3.2.4-0nkmi1~noble
 _ZN3std3net3tcp11TcpListener7set_ttl17h52a7000ba3d3543aE@Base 3.2.4-0nkmi1~noble
 _ZN3std3net3tcp11TcpListener9try_clone17hbb0e797184afca17E@Base 3.2.4-0nkmi1~noble
 _ZN3std3net3tcp9TcpStream10local_addr17h492d954534084411E@Base 3.2.4-0nkmi1~noble
 _ZN3std3net3tcp9TcpStream10set_linger17h749db611b4f2e70fE@Base 3.2.4-0nkmi1~noble
 _ZN3std3net3tcp9TcpStream10take_error17h35445e45a1b098c0E@Base 3.2.4-0nkmi1~noble
 _ZN3std3net3tcp9TcpStream11set_nodelay17h8728ba40ea6bfadeE@Base 3.2.4-0nkmi1~noble
 _ZN3std3net3tcp9TcpStream12read_timeout17h05681991e5982070E@Base 3.2.4-0nkmi1~noble
 _ZN3std3net3tcp9TcpStream13write_timeout17h3a1b3abc2f249155E@Base 3.2.4-0nkmi1~noble
 _ZN3std3net3tcp9TcpStream15connect_timeout17h1ed12a376433138cE@Base 3.2.4-0nkmi1~noble
 _ZN3std3net3tcp9TcpStream15set_nonblocking17h9ef6b30883fe9666E@Base 3.2.4-0nkmi1~noble
 _ZN3std3net3tcp9TcpStream16set_read_timeout17h5d6cd9ff929e186cE@Base 3.2.4-0nkmi1~noble
 _ZN3std3net3tcp9TcpStream17set_write_timeout17h23925437744e9588E@Base 3.2.4-0nkmi1~noble
 _ZN3std3net3tcp9TcpStream3ttl17hffef3f402a965595E@Base 3.2.4-0nkmi1~noble
 _ZN3std3net3tcp9TcpStream4peek17h7e99c42327d7e712E@Base 3.2.4-0nkmi1~noble
 _ZN3std3net3tcp9TcpStream6linger17h8766d4dc91c79a72E@Base 3.2.4-0nkmi1~noble
 _ZN3std3net3tcp9TcpStream7nodelay17hf697d1e087372d38E@Base 3.2.4-0nkmi1~noble
 _ZN3std3net3tcp9TcpStream7set_ttl17hccda56cf20fdb58fE@Base 3.2.4-0nkmi1~noble
 _ZN3std3net3tcp9TcpStream8shutdown17hd684fc3049f59ae3E@Base 3.2.4-0nkmi1~noble
 _ZN3std3net3tcp9TcpStream9peer_addr17h617b11b1dba451e5E@Base 3.2.4-0nkmi1~noble
 _ZN3std3net3tcp9TcpStream9try_clone17h821fa8e33ca4a9a8E@Base 3.2.4-0nkmi1~noble
 _ZN3std3net3udp9UdpSocket10local_addr17hc1d708e80794192eE@Base 3.2.4-0nkmi1~noble
 _ZN3std3net3udp9UdpSocket10take_error17h3b1002ac92da56f8E@Base 3.2.4-0nkmi1~noble
 _ZN3std3net3udp9UdpSocket12read_timeout17h7addb2034f6b93d7E@Base 3.2.4-0nkmi1~noble
 _ZN3std3net3udp9UdpSocket13set_broadcast17hc304f72b3fd509e4E@Base 3.2.4-0nkmi1~noble
 _ZN3std3net3udp9UdpSocket13write_timeout17h900c239f3410064fE@Base 3.2.4-0nkmi1~noble
 _ZN3std3net3udp9UdpSocket15set_nonblocking17h972ef981c8ec2c99E@Base 3.2.4-0nkmi1~noble
 _ZN3std3net3udp9UdpSocket16multicast_ttl_v417hdc4b45a97020ab41E@Base 3.2.4-0nkmi1~noble
 _ZN3std3net3udp9UdpSocket16set_read_timeout17h150af297a86362c2E@Base 3.2.4-0nkmi1~noble
 _ZN3std3net3udp9UdpSocket17join_multicast_v417ha67e4e3d2da09b30E@Base 3.2.4-0nkmi1~noble
 _ZN3std3net3udp9UdpSocket17join_multicast_v617h77e4e358ddfacbe1E@Base 3.2.4-0nkmi1~noble
 _ZN3std3net3udp9UdpSocket17multicast_loop_v417hc48289db33b994a5E@Base 3.2.4-0nkmi1~noble
 _ZN3std3net3udp9UdpSocket17multicast_loop_v617ha33572c4043d55a5E@Base 3.2.4-0nkmi1~noble
 _ZN3std3net3udp9UdpSocket17set_write_timeout17h1772cf7a0759105fE@Base 3.2.4-0nkmi1~noble
 _ZN3std3net3udp9UdpSocket18leave_multicast_v417h192ca0b71465a206E@Base 3.2.4-0nkmi1~noble
 _ZN3std3net3udp9UdpSocket18leave_multicast_v617h89d4360813b76edeE@Base 3.2.4-0nkmi1~noble
 _ZN3std3net3udp9UdpSocket20set_multicast_ttl_v417h80487946f549dc0aE@Base 3.2.4-0nkmi1~noble
 _ZN3std3net3udp9UdpSocket21set_multicast_loop_v417h97c431d64bcc6ee7E@Base 3.2.4-0nkmi1~noble
 _ZN3std3net3udp9UdpSocket21set_multicast_loop_v617h09fdb053c862ac02E@Base 3.2.4-0nkmi1~noble
 _ZN3std3net3udp9UdpSocket3ttl17h469e410497eb2e63E@Base 3.2.4-0nkmi1~noble
 _ZN3std3net3udp9UdpSocket4peek17h45a8fadc9aed971eE@Base 3.2.4-0nkmi1~noble
 _ZN3std3net3udp9UdpSocket4recv17hc210b2b7d02ff244E@Base 3.2.4-0nkmi1~noble
 _ZN3std3net3udp9UdpSocket4send17h4a18f5febb009471E@Base 3.2.4-0nkmi1~noble
 _ZN3std3net3udp9UdpSocket7set_ttl17hcc86528e1ee7c49cE@Base 3.2.4-0nkmi1~noble
 _ZN3std3net3udp9UdpSocket9broadcast17hfc0be1886c1ed428E@Base 3.2.4-0nkmi1~noble
 _ZN3std3net3udp9UdpSocket9peek_from17h17a210b651d2703fE@Base 3.2.4-0nkmi1~noble
 _ZN3std3net3udp9UdpSocket9peer_addr17ha410813e0c4e7beaE@Base 3.2.4-0nkmi1~noble
 _ZN3std3net3udp9UdpSocket9recv_from17hadf0938030395897E@Base 3.2.4-0nkmi1~noble
 _ZN3std3net3udp9UdpSocket9try_clone17h986970deecc3c469E@Base 3.2.4-0nkmi1~noble
 _ZN3std3sys4unix11kernel_copy15sendfile_splice17ha80843e72f509c88E@Base 3.2.4-0nkmi1~noble
 _ZN3std3sys4unix11kernel_copy18copy_regular_files17h0d1a33a546f9ec5dE@Base 3.2.4-0nkmi1~noble
 _ZN3std3sys4unix14abort_internal17h5e2d81c1c1a2ab3dE@Base 3.2.4-0nkmi1~noble
 _ZN3std3sys4unix17thread_local_dtor13register_dtor17h003094dd0f9618cdE@Base 3.2.4-0nkmi1~noble
 _ZN3std3sys4unix2fd8FileDesc11read_to_end17h727cd75a7eb48938E@Base 3.2.4-0nkmi1~noble
 _ZN3std3sys4unix2fd8FileDesc11set_cloexec17hb6f9ee54e49723c9E@Base 3.2.4-0nkmi1~noble
 _ZN3std3sys4unix2fd8FileDesc13read_vectored17hbdb794e012806354E@Base 3.2.4-0nkmi1~noble
 _ZN3std3sys4unix2fd8FileDesc14write_vectored17h834e3f842fba4234E@Base 3.2.4-0nkmi1~noble
 _ZN3std3sys4unix2fd8FileDesc15set_nonblocking17hf8040250a975316fE@Base 3.2.4-0nkmi1~noble
 _ZN3std3sys4unix2fd8FileDesc16read_vectored_at17h5b52add8a9bf1bd9E@Base 3.2.4-0nkmi1~noble
 _ZN3std3sys4unix2fd8FileDesc17write_vectored_at17h4276e3bfa7f3657dE@Base 3.2.4-0nkmi1~noble
 _ZN3std3sys4unix2fd8FileDesc4read17h4379839b056fc642E@Base 3.2.4-0nkmi1~noble
 _ZN3std3sys4unix2fd8FileDesc5write17heb1ee1a4ae6e8514E@Base 3.2.4-0nkmi1~noble
 _ZN3std3sys4unix2fd8FileDesc7read_at17h9767ebef4baa9035E@Base 3.2.4-0nkmi1~noble
 _ZN3std3sys4unix2fd8FileDesc8read_buf17haa80f98447bf6850E@Base 3.2.4-0nkmi1~noble
 _ZN3std3sys4unix2fd8FileDesc8write_at17h5c13b774cdefc892E@Base 3.2.4-0nkmi1~noble
 _ZN3std3sys4unix2fs12canonicalize17h89d6c0c2889f9374E@Base 3.2.4-0nkmi1~noble
 _ZN3std3sys4unix2fs15remove_dir_impl14remove_dir_all17h63ea5ff21c56fd33E@Base 3.2.4-0nkmi1~noble
 _ZN3std3sys4unix2fs4File13read_vectored17h0d7e5c8c0baf4f08E@Base 3.2.4-0nkmi1~noble
 _ZN3std3sys4unix2fs4File4read17h9f24f246eaecf469E@Base 3.2.4-0nkmi1~noble
 _ZN3std3sys4unix2fs4File8read_buf17h151dc08ba61d91f1E@Base 3.2.4-0nkmi1~noble
 _ZN3std3sys4unix2fs4copy17h266bc1baf4b9fa57E@Base 3.2.4-0nkmi1~noble
 _ZN3std3sys4unix2fs4link17hbd84fa6864106f25E@Base 3.2.4-0nkmi1~noble
 _ZN3std3sys4unix2fs4stat17hedc8fdb38dfbeebcE@Base 3.2.4-0nkmi1~noble
 _ZN3std3sys4unix2fs5chown17hb019aa609702110bE@Base 3.2.4-0nkmi1~noble
 _ZN3std3sys4unix2fs5lstat17hc1aecf37a6c1599eE@Base 3.2.4-0nkmi1~noble
 _ZN3std3sys4unix2fs5rmdir17h229196b2490e536dE@Base 3.2.4-0nkmi1~noble
 _ZN3std3sys4unix2fs6chroot17hd886a28aaecf7f52E@Base 3.2.4-0nkmi1~noble
 _ZN3std3sys4unix2fs6fchown17h92b6458a825e92d9E@Base 3.2.4-0nkmi1~noble
 _ZN3std3sys4unix2fs6lchown17h3c1958e6cf9e0ea4E@Base 3.2.4-0nkmi1~noble
 _ZN3std3sys4unix2fs6rename17hb5985831779d005aE@Base 3.2.4-0nkmi1~noble
 _ZN3std3sys4unix2fs6unlink17h7f92b66ac3192e28E@Base 3.2.4-0nkmi1~noble
 _ZN3std3sys4unix2fs7readdir17hfe4052813aea104aE@Base 3.2.4-0nkmi1~noble
 _ZN3std3sys4unix2fs7symlink17h7a5086245c94ff42E@Base 3.2.4-0nkmi1~noble
 _ZN3std3sys4unix2fs8readlink17h4db6b25ed4174774E@Base 3.2.4-0nkmi1~noble
 _ZN3std3sys4unix2fs8set_perm17h4eb902ea3c8dc976E@Base 3.2.4-0nkmi1~noble
 _ZN3std3sys4unix2os11split_paths13bytes_to_path17hb9d2332e97fd5909E@Base 3.2.4-0nkmi1~noble
 _ZN3std3sys4unix2os5chdir17hfb7098b2155e8aa4E@Base 3.2.4-0nkmi1~noble
 _ZN3std3sys4unix2os5errno17h479bd648a461d476E@Base 3.2.4-0nkmi1~noble
 _ZN3std3sys4unix3net6Socket7new_raw17h7a73bc833ffd46c6E@Base 3.2.4-0nkmi1~noble
 _ZN3std3sys4unix4args3imp15ARGV_INIT_ARRAY12init_wrapper17he886b5184c338d23E@Base 3.2.4-0nkmi1~noble
 _ZN3std3sys4unix4args3imp15ARGV_INIT_ARRAY17he50a568fa1fcfcfeE@Base 3.2.4-0nkmi1~noble
 _ZN3std3sys4unix4path8absolute17hc8bd8ff62928db21E@Base 3.2.4-0nkmi1~noble
 _ZN3std3sys4unix4rand19hashmap_random_keys17h578984da35978319E@Base 3.2.4-0nkmi1~noble
 _ZN3std3sys4unix4time8Timespec3new17h8d45b06a04791b8eE@Base 3.2.4-0nkmi1~noble
 _ZN3std3sys4unix4time8Timespec4zero17h1b30e3667c0cf0d0E@Base 3.2.4-0nkmi1~noble
 _ZN3std3sys4unix5futex10futex_wait17h4b8e3a809986584aE@Base 3.2.4-0nkmi1~noble
 _ZN3std3sys4unix5futex10futex_wake17h01f3ed0baf5418cfE@Base 3.2.4-0nkmi1~noble
 _ZN3std3sys4unix5locks11futex_mutex5Mutex14lock_contended17h17cb24d502bc3b98E@Base 3.2.4-0nkmi1~noble
 _ZN3std3sys4unix5locks11futex_mutex5Mutex4wake17h18e2e89a686569b3E@Base 3.2.4-0nkmi1~noble
 _ZN3std3sys4unix5locks12futex_rwlock6RwLock14read_contended17h08d1c446c6c04194E@Base 3.2.4-0nkmi1~noble
 _ZN3std3sys4unix5locks12futex_rwlock6RwLock15write_contended17h0ee8c0d22ca01fbfE@Base 3.2.4-0nkmi1~noble
 _ZN3std3sys4unix5locks12futex_rwlock6RwLock22wake_writer_or_readers17hd7b8ff9e5b59228dE@Base 3.2.4-0nkmi1~noble
 _ZN3std3sys4unix5locks13futex_condvar7Condvar12wait_timeout17h15a8f4c9dfd3bd5cE@Base 3.2.4-0nkmi1~noble
 _ZN3std3sys4unix5locks13futex_condvar7Condvar4wait17hc2bd9c9b14ec6505E@Base 3.2.4-0nkmi1~noble
 _ZN3std3sys4unix6memchr6memchr17h25b798fdc10e3648E@Base 3.2.4-0nkmi1~noble
 _ZN3std3sys4unix6memchr7memrchr17hb9e3c8c5f4c565fbE@Base 3.2.4-0nkmi1~noble
 _ZN3std3sys4unix6os_str3Buf10push_slice17h043731734ea8067bE@Base 3.2.4-0nkmi1~noble
 _ZN3std3sys4unix6os_str3Buf11into_string17h0df290f7ab0647bfE@Base 3.2.4-0nkmi1~noble
 _ZN3std3sys4unix6os_str5Slice10clone_into17h46ebc145eb60722aE@Base 3.2.4-0nkmi1~noble
 _ZN3std3sys4unix6os_str5Slice15to_string_lossy17ha589439b7246c6dbE@Base 3.2.4-0nkmi1~noble
 _ZN3std3sys4unix6os_str5Slice6to_str17h9c5537fcb9af1444E@Base 3.2.4-0nkmi1~noble
 _ZN3std3sys4unix6os_str5Slice8to_owned17h9e3b2a8c7825b4ebE@Base 3.2.4-0nkmi1~noble
 _ZN3std3sys4unix6thread5guard7current17h8ef7a35324e0e7c1E@Base 3.2.4-0nkmi1~noble
 _ZN3std3sys4unix6thread6Thread3new17hbe2a1fb0d78156cfE@Base 3.2.4-0nkmi1~noble
 _ZN3std3sys4unix6thread6Thread4join17hfe6ae088912242c2E@Base 3.2.4-0nkmi1~noble
 _ZN3std3sys4unix6thread6Thread8set_name17hb2be594fbb847bdeE@Base 3.2.4-0nkmi1~noble
 _ZN3std3sys4unix7process13process_inner83_$LT$impl$u20$std..os..linux..process..ChildExt$u20$for$u20$std..process..Child$GT$10take_pidfd17h0270939055f5ceecE@Base 3.2.4-0nkmi1~noble
 _ZN3std3sys4unix7process13process_inner83_$LT$impl$u20$std..os..linux..process..ChildExt$u20$for$u20$std..process..Child$GT$5pidfd17h3ba26778e364a206E@Base 3.2.4-0nkmi1~noble
 _ZN3std3sys4unix7process14process_common7Command3arg17hadad82d52a7ddcfdE@Base 3.2.4-0nkmi1~noble
 _ZN3std3sys4unix7process14process_common7Command3cwd17h3f1ed8c3599f44d0E@Base 3.2.4-0nkmi1~noble
 _ZN3std3sys4unix7process14process_common7Command3new17ha053ac3a37bb226bE@Base 3.2.4-0nkmi1~noble
 _ZN3std3sys4unix7process14process_common7Command5stdin17hca80a2179ed5f5feE@Base 3.2.4-0nkmi1~noble
 _ZN3std3sys4unix7process14process_common7Command6stderr17hc173713c3287697eE@Base 3.2.4-0nkmi1~noble
 _ZN3std3sys4unix7process14process_common7Command6stdout17h54f58c300347d5a7E@Base 3.2.4-0nkmi1~noble
 _ZN3std3sys4unix7process14process_common7Command8pre_exec17hb7c43bd9106c872dE@Base 3.2.4-0nkmi1~noble
 _ZN3std3sys4unix7process14process_common7Command9set_arg_017h38eff57882eba76cE@Base 3.2.4-0nkmi1~noble
 _ZN3std3sys6common5alloc16realloc_fallback17h64d48f0ad441db8eE@Base 3.2.4-0nkmi1~noble
 _ZN3std4path10Components7as_path17h08e15c471a9b456bE@Base 3.2.4-0nkmi1~noble
 _ZN3std4path117_$LT$impl$u20$core..convert..From$LT$$RF$std..path..Path$GT$$u20$for$u20$alloc..boxed..Box$LT$std..path..Path$GT$$GT$4from17hf9f44ff37555f4ffE@Base 3.2.4-0nkmi1~noble
 _ZN3std4path18compare_components17hb23c174eb2e7e09cE@Base 3.2.4-0nkmi1~noble
 _ZN3std4path4Path10_ends_with17hbf6fc26b932d826eE@Base 3.2.4-0nkmi1~noble
 _ZN3std4path4Path10components17hdecf02d4627d11d7E@Base 3.2.4-0nkmi1~noble
 _ZN3std4path4Path10is_symlink17h3f7be3eb935ab4daE@Base 3.2.4-0nkmi1~noble
 _ZN3std4path4Path11file_prefix17h91f6a4106f5ccf18E@Base 3.2.4-0nkmi1~noble
 _ZN3std4path4Path11is_absolute17h5b4628d3ffb69b81E@Base 3.2.4-0nkmi1~noble
 _ZN3std4path4Path11to_path_buf17h4e0407cdd2a9ebb0E@Base 3.2.4-0nkmi1~noble
 _ZN3std4path4Path12_starts_with17h829c70b9c5d2e48fE@Base 3.2.4-0nkmi1~noble
 _ZN3std4path4Path13_strip_prefix17hf76ae947f3e65637E@Base 3.2.4-0nkmi1~noble
 _ZN3std4path4Path13into_path_buf17heb64102baa7e9847E@Base 3.2.4-0nkmi1~noble
 _ZN3std4path4Path15_with_extension17ha79f066e56e32fb5E@Base 3.2.4-0nkmi1~noble
 _ZN3std4path4Path15_with_file_name17h842a75f4f1f0de66E@Base 3.2.4-0nkmi1~noble
 _ZN3std4path4Path5_join17he8485f24b2f0e292E@Base 3.2.4-0nkmi1~noble
 _ZN3std4path4Path6is_dir17h16c962dc28b7fc1fE@Base 3.2.4-0nkmi1~noble
 _ZN3std4path4Path6parent17h2dc0e25e542385b3E@Base 3.2.4-0nkmi1~noble
 _ZN3std4path4Path7is_file17hc095088430512a8aE@Base 3.2.4-0nkmi1~noble
 _ZN3std4path4Path9extension17h903fdc91e37675d8E@Base 3.2.4-0nkmi1~noble
 _ZN3std4path4Path9file_name17h0d5572ed5aab2e4dE@Base 3.2.4-0nkmi1~noble
 _ZN3std4path4Path9file_stem17h9ec25d2bebe5cb67E@Base 3.2.4-0nkmi1~noble
 _ZN3std4path7PathBuf14_set_extension17heeca57134e598a62E@Base 3.2.4-0nkmi1~noble
 _ZN3std4path7PathBuf14_set_file_name17hb9f0abaf3a3aa0c6E@Base 3.2.4-0nkmi1~noble
 _ZN3std4path7PathBuf3pop17h266ca42a45401026E@Base 3.2.4-0nkmi1~noble
 _ZN3std4path7PathBuf5_push17he4b2d3fa8a354cf0E@Base 3.2.4-0nkmi1~noble
 _ZN3std4sync4mpmc5waker17current_thread_id5DUMMY7__getit5__KEY17he1d4ff62bf3dbdd5E@Base 3.2.4-0nkmi1~noble
 _ZN3std4sync4mpmc7context7Context3new17h9445200eefa78495E@Base 3.2.4-0nkmi1~noble
 _ZN3std4sync4mpmc7context7Context4with7CONTEXT7__getit5__KEY17h50642d0be6d91267E@Base 3.2.4-0nkmi1~noble
 _ZN3std4sync7barrier7Barrier4wait17h114de59ada28b7e1E@Base 3.2.4-0nkmi1~noble
 _ZN3std4sync7condvar7Condvar10notify_all17h912bad1a9207830bE@Base 3.2.4-0nkmi1~noble
 _ZN3std4sync7condvar7Condvar10notify_one17h57e9e19f0724fca1E@Base 3.2.4-0nkmi1~noble
 _ZN3std4time10SystemTime11checked_add17h4557eb06b97c044aE@Base 3.2.4-0nkmi1~noble
 _ZN3std4time10SystemTime11checked_sub17h64ccb5ced05a342aE@Base 3.2.4-0nkmi1~noble
 _ZN3std4time10SystemTime14duration_since17h7a7523b060e86a6aE@Base 3.2.4-0nkmi1~noble
 _ZN3std4time10SystemTime3now17h8f5535d7ecee82b7E@Base 3.2.4-0nkmi1~noble
 _ZN3std4time10SystemTime7elapsed17hd5056a139243e926E@Base 3.2.4-0nkmi1~noble
 _ZN3std4time7Instant11checked_add17hb311324c427921bbE@Base 3.2.4-0nkmi1~noble
 _ZN3std4time7Instant11checked_sub17hb6e3a6ea95b389aaE@Base 3.2.4-0nkmi1~noble
 _ZN3std4time7Instant14duration_since17h1627f69ab8f40773E@Base 3.2.4-0nkmi1~noble
 _ZN3std4time7Instant22checked_duration_since17hb199991212b35763E@Base 3.2.4-0nkmi1~noble
 _ZN3std4time7Instant25saturating_duration_since17h79ad7a80d348ff2eE@Base 3.2.4-0nkmi1~noble
 _ZN3std4time7Instant3now17h226c39f1ab67158aE@Base 3.2.4-0nkmi1~noble
 _ZN3std4time7Instant7elapsed17h1ffc46cba6cc5c08E@Base 3.2.4-0nkmi1~noble
 _ZN3std5alloc20set_alloc_error_hook17haa161189dd6368ffE@Base 3.2.4-0nkmi1~noble
 _ZN3std5alloc21take_alloc_error_hook17hb6af83b370978122E@Base 3.2.4-0nkmi1~noble
 _ZN3std5alloc8rust_oom17hc036db6f5086ad57E@Base 3.2.4-0nkmi1~noble
 _ZN3std5panic12always_abort17h31351f4a5cf44154E@Base 3.2.4-0nkmi1~noble
 _ZN3std5panic13resume_unwind17h919e54aac02344c5E@Base 3.2.4-0nkmi1~noble
 _ZN3std5panic19get_backtrace_style17h0221f38d610d7bffE@Base 3.2.4-0nkmi1~noble
 _ZN3std5panic19set_backtrace_style17h9f947984e6f48220E@Base 3.2.4-0nkmi1~noble
 _ZN3std6thread11sleep_until17h52ba24315099eabfE@Base 3.2.4-0nkmi1~noble
 _ZN3std6thread12park_timeout17hd2542b6ef21811ceE@Base 3.2.4-0nkmi1~noble
 _ZN3std6thread15park_timeout_ms17h7a9ad6dccc70548eE@Base 3.2.4-0nkmi1~noble
 _ZN3std6thread21available_parallelism17hc65e901fff762d31E@Base 3.2.4-0nkmi1~noble
 _ZN3std6thread4park17h313d15757f79287cE@Base 3.2.4-0nkmi1~noble
 _ZN3std6thread5sleep17h54f7247ed1b8819fE@Base 3.2.4-0nkmi1~noble
 _ZN3std6thread6Thread3new17hc70fd1b4757f1277E@Base 3.2.4-0nkmi1~noble
 _ZN3std6thread6Thread4name17h91f4c97f66d38f64E@Base 3.2.4-0nkmi1~noble
 _ZN3std6thread6Thread5cname17h8a0f5427f91c8cb4E@Base 3.2.4-0nkmi1~noble
 _ZN3std6thread6scoped9ScopeData29decrement_num_running_threads17h3606c0a253b71237E@Base 3.2.4-0nkmi1~noble
 _ZN3std6thread6scoped9ScopeData29increment_num_running_threads17h7faba0f8f01ad818E@Base 3.2.4-0nkmi1~noble
 _ZN3std6thread7Builder4name17h8cdb3917be5b517fE@Base 3.2.4-0nkmi1~noble
 _ZN3std6thread7current17h8cfda10926211f4fE@Base 3.2.4-0nkmi1~noble
 _ZN3std6thread8sleep_ms17h99856073796aab3bE@Base 3.2.4-0nkmi1~noble
 _ZN3std6thread9yield_now17h3b814cc012c8c70aE@Base 3.2.4-0nkmi1~noble
 _ZN3std7process10ExitStatus7exit_ok17hfd1ac6da74469d8bE@Base 3.2.4-0nkmi1~noble
 _ZN3std7process10ExitStatus7success17hfe16e32a4c3ab8fcE@Base 3.2.4-0nkmi1~noble
 _ZN3std7process15ExitStatusError12code_nonzero17h5dcbb881e39cace4E@Base 3.2.4-0nkmi1~noble
 _ZN3std7process15ExitStatusError4code17hacb9d72aca115196E@Base 3.2.4-0nkmi1~noble
 _ZN3std7process2id17h0281cf620ba999dbE@Base 3.2.4-0nkmi1~noble
 _ZN3std7process4exit17hfc87e7bf53f95059E@Base 3.2.4-0nkmi1~noble
 _ZN3std7process5Child16wait_with_output17h99d2a0cad75bd675E@Base 3.2.4-0nkmi1~noble
 _ZN3std7process5Child4kill17h4333e3844e961059E@Base 3.2.4-0nkmi1~noble
 _ZN3std7process5Child4wait17h0b08584d8c144661E@Base 3.2.4-0nkmi1~noble
 _ZN3std7process5Child8try_wait17h861506cdf5341029E@Base 3.2.4-0nkmi1~noble
 _ZN3std7process5abort17h08e07168f7f527e8E@Base 3.2.4-0nkmi1~noble
 _ZN3std7process7Command15get_current_dir17hf140d90d7db03051E@Base 3.2.4-0nkmi1~noble
 _ZN3std7process7Command5spawn17h63e9506eaf244522E@Base 3.2.4-0nkmi1~noble
 _ZN3std7process7Command6output17h1ec809ff16a5c2deE@Base 3.2.4-0nkmi1~noble
 _ZN3std7process7Command6status17h8571c9917f51ae9aE@Base 3.2.4-0nkmi1~noble
 _ZN3std7process7Command8get_args17h18268f4d1c11613cE@Base 3.2.4-0nkmi1~noble
 _ZN3std7process7Command8get_envs17hf63b2e29dcb2c8e1E@Base 3.2.4-0nkmi1~noble
 _ZN3std7process7Command9env_clear17h257fd355d0ebc8c0E@Base 3.2.4-0nkmi1~noble
 _ZN3std7process8ExitCode12exit_process17h684352d1209e957fE@Base 3.2.4-0nkmi1~noble
 _ZN3std9backtrace9Backtrace13force_capture17h9bd8fc59775192b3E@Base 3.2.4-0nkmi1~noble
 _ZN3std9backtrace9Backtrace6frames17h561a8bfdcc7c9822E@Base 3.2.4-0nkmi1~noble
 _ZN3std9backtrace9Backtrace7capture17ha51926deb6290b6fE@Base 3.2.4-0nkmi1~noble
 _ZN3std9panicking11panic_count16set_always_abort17h7c809deff0fb1ccdE@Base 3.2.4-0nkmi1~noble
 _ZN3std9panicking11panic_count17is_zero_slow_path17h2a2171136b130fdbE@Base 3.2.4-0nkmi1~noble
 _ZN3std9panicking11panic_count18GLOBAL_PANIC_COUNT17he84491da9c95af04E@Base 3.2.4-0nkmi1~noble
 _ZN3std9panicking11panic_count19finished_panic_hook17h365d1cdd2c719284E@Base 3.2.4-0nkmi1~noble
 _ZN3std9panicking11panic_count8decrease17h7b84546bc96b9c3dE@Base 3.2.4-0nkmi1~noble
 _ZN3std9panicking11panic_count8increase17he44fe41b25c774bcE@Base 3.2.4-0nkmi1~noble
 _ZN3std9panicking11panic_count9get_count17h397e641042d383bfE@Base 3.2.4-0nkmi1~noble
 _ZN3std9panicking12default_hook17h7b29000c631cc719E@Base 3.2.4-0nkmi1~noble
 _ZN3std9panicking20rust_panic_with_hook17h2a988919dd121561E@Base 3.2.4-0nkmi1~noble
 _ZN3std9panicking3try7cleanup17h035d044239159801E@Base 3.2.4-0nkmi1~noble
 _ZN3std9panicking4HOOK17hfd98d3b27c0f09ecE@Base 3.2.4-0nkmi1~noble
 _ZN3std9panicking8set_hook17h28a50e83a9f742b4E@Base 3.2.4-0nkmi1~noble
 _ZN3std9panicking9take_hook17hd7312a4fd853109dE@Base 3.2.4-0nkmi1~noble
 _ZN40_$LT$str$u20$as$u20$core..fmt..Debug$GT$3fmt17hd617791c72e46562E@Base 3.2.4-0nkmi1~noble
 _ZN41_$LT$char$u20$as$u20$core..fmt..Debug$GT$3fmt17hbcd93f346edd300eE@Base 3.2.4-0nkmi1~noble
 _ZN42_$LT$str$u20$as$u20$core..fmt..Display$GT$3fmt17h3c2ec2c8fa2198ccE@Base 3.2.4-0nkmi1~noble
 _ZN43_$LT$bool$u20$as$u20$core..fmt..Display$GT$3fmt17hce2c238f067162a9E@Base 3.2.4-0nkmi1~noble
 _ZN43_$LT$char$u20$as$u20$core..fmt..Display$GT$3fmt17hd22f176e330d62d6E@Base 3.2.4-0nkmi1~noble
 _ZN47_$LT$std..fs..File$u20$as$u20$std..io..Read$GT$11read_to_end17h7e60471246989e0eE@Base 3.2.4-0nkmi1~noble
 _ZN47_$LT$std..fs..File$u20$as$u20$std..io..Read$GT$13read_vectored17h8644130fece888bcE@Base 3.2.4-0nkmi1~noble
 _ZN47_$LT$std..fs..File$u20$as$u20$std..io..Read$GT$14read_to_string17h28d9bab9e18088b2E@Base 3.2.4-0nkmi1~noble
 _ZN47_$LT$std..fs..File$u20$as$u20$std..io..Read$GT$4read17hce8afbc3998c6b6dE@Base 3.2.4-0nkmi1~noble
 _ZN47_$LT$std..fs..File$u20$as$u20$std..io..Read$GT$8read_buf17ha1370a765e52c156E@Base 3.2.4-0nkmi1~noble
 _ZN47_$LT$std..fs..File$u20$as$u20$std..io..Seek$GT$4seek17h3941b22b4fbc9883E@Base 3.2.4-0nkmi1~noble
 _ZN48_$LT$std..fs..File$u20$as$u20$std..io..Write$GT$14write_vectored17h1cac2a8b58fb4f73E@Base 3.2.4-0nkmi1~noble
 _ZN48_$LT$std..fs..File$u20$as$u20$std..io..Write$GT$5write17hf40d535e2b1518c0E@Base 3.2.4-0nkmi1~noble
 _ZN49_$LT$u8$u20$as$u20$core..num..bignum..FullOps$GT$12full_div_rem17h39d47d9dea00fd28E@Base 3.2.4-0nkmi1~noble
 _ZN4core10intrinsics3mir11StorageDead19panic_cold_explicit17hd77db22cb05d8d10E@Base 3.2.4-0nkmi1~noble
 _ZN4core10intrinsics3mir11StorageLive19panic_cold_explicit17haa7432d015d83318E@Base 3.2.4-0nkmi1~noble
 _ZN4core10intrinsics3mir11Unreachable19panic_cold_explicit17hc6fd995381e567a9E@Base 3.2.4-0nkmi1~noble
 _ZN4core10intrinsics3mir11__debuginfo19panic_cold_explicit17hc1207085859a7be3E@Base 3.2.4-0nkmi1~noble
 _ZN4core10intrinsics3mir12CopyForDeref19panic_cold_explicit17hb5e2540b54c06c1eE@Base 3.2.4-0nkmi1~noble
 _ZN4core10intrinsics3mir12Discriminant19panic_cold_explicit17h36aa86f991a35606E@Base 3.2.4-0nkmi1~noble
 _ZN4core10intrinsics3mir13CastTransmute19panic_cold_explicit17hf7e60c46c6b05c86E@Base 3.2.4-0nkmi1~noble
 _ZN4core10intrinsics3mir15SetDiscriminant19panic_cold_explicit17h08a278d248c61042E@Base 3.2.4-0nkmi1~noble
 _ZN4core10intrinsics3mir21__internal_make_place19panic_cold_explicit17hecba1476f8b89a13E@Base 3.2.4-0nkmi1~noble
 _ZN4core10intrinsics3mir3Len19panic_cold_explicit17h9d449d30348778a6E@Base 3.2.4-0nkmi1~noble
 _ZN4core10intrinsics3mir4Call19panic_cold_explicit17h7f82e0b615b14eafE@Base 3.2.4-0nkmi1~noble
 _ZN4core10intrinsics3mir4Drop19panic_cold_explicit17h13385fcdbdba24e7E@Base 3.2.4-0nkmi1~noble
 _ZN4core10intrinsics3mir4Goto19panic_cold_explicit17haf77ab95b0eb527fE@Base 3.2.4-0nkmi1~noble
 _ZN4core10intrinsics3mir4Move19panic_cold_explicit17h326a1506cad1cf29E@Base 3.2.4-0nkmi1~noble
 _ZN4core10intrinsics3mir5Field19panic_cold_explicit17h65ef67b5286af818E@Base 3.2.4-0nkmi1~noble
 _ZN4core10intrinsics3mir5Retag19panic_cold_explicit17hc44eab514c85086bE@Base 3.2.4-0nkmi1~noble
 _ZN4core10intrinsics3mir6Deinit19panic_cold_explicit17hfa8de4d5542b0d29E@Base 3.2.4-0nkmi1~noble
 _ZN4core10intrinsics3mir6Offset19panic_cold_explicit17h511896863cb64d41E@Base 3.2.4-0nkmi1~noble
 _ZN4core10intrinsics3mir6Return19panic_cold_explicit17h94175b531c58acf8E@Base 3.2.4-0nkmi1~noble
 _ZN4core10intrinsics3mir6Static19panic_cold_explicit17ha2acf23f8c37c675E@Base 3.2.4-0nkmi1~noble
 _ZN4core10intrinsics3mir7Checked19panic_cold_explicit17ha94cda2f1c95e5feE@Base 3.2.4-0nkmi1~noble
 _ZN4core10intrinsics3mir7Variant19panic_cold_explicit17h10cf471bdc418921E@Base 3.2.4-0nkmi1~noble
 _ZN4core10intrinsics3mir9StaticMut19panic_cold_explicit17h0b7ceb6097377c4eE@Base 3.2.4-0nkmi1~noble
 _ZN4core3f3221_$LT$impl$u20$f32$GT$7to_bits13ct_f32_to_u3217h2ad5906f87d38f7dE@Base 3.2.4-0nkmi1~noble
 _ZN4core3f3221_$LT$impl$u20$f32$GT$9from_bits13ct_u32_to_f3217he843c358c141c259E@Base 3.2.4-0nkmi1~noble
 _ZN4core3f6421_$LT$impl$u20$f64$GT$7to_bits13ct_f64_to_u6417hcbf2d2db26f23fcbE@Base 3.2.4-0nkmi1~noble
 _ZN4core3f6421_$LT$impl$u20$f64$GT$9from_bits13ct_u64_to_f6417h0f24a55005b64b7eE@Base 3.2.4-0nkmi1~noble
 _ZN4core3ffi5c_str4CStr19from_bytes_with_nul17h269215dfa63dc348E@Base 3.2.4-0nkmi1~noble
 _ZN4core3ffi5c_str4CStr20from_bytes_until_nul17he284bf29b25d4eccE@Base 3.2.4-0nkmi1~noble
 _ZN4core3ffi5c_str4CStr29from_bytes_with_nul_unchecked10const_impl17hdcb0496d8660b529E@Base 3.2.4-0nkmi1~noble
 _ZN4core3ffi5c_str4CStr6to_str17h723c953a1636aaefE@Base 3.2.4-0nkmi1~noble
 _ZN4core3fmt17pointer_fmt_inner17h1f1826f706a63493E@Base 3.2.4-0nkmi1~noble
 _ZN4core3fmt2rt12USIZE_MARKER17hb6b5f4567b646745E@Base 3.2.4-0nkmi1~noble
 _ZN4core3fmt3num3imp51_$LT$impl$u20$core..fmt..Display$u20$for$u20$i8$GT$3fmt17hed9ec49428827110E@Base 3.2.4-0nkmi1~noble
 _ZN4core3fmt3num3imp51_$LT$impl$u20$core..fmt..Display$u20$for$u20$u8$GT$3fmt17h9a050dd4d0c10ecaE@Base 3.2.4-0nkmi1~noble
 _ZN4core3fmt3num3imp52_$LT$impl$u20$core..fmt..Display$u20$for$u20$i16$GT$3fmt17h840792821908f8feE@Base 3.2.4-0nkmi1~noble
 _ZN4core3fmt3num3imp52_$LT$impl$u20$core..fmt..Display$u20$for$u20$i32$GT$3fmt17h3eb69c4135d59633E@Base 3.2.4-0nkmi1~noble
 _ZN4core3fmt3num3imp52_$LT$impl$u20$core..fmt..Display$u20$for$u20$i64$GT$3fmt17h7acbf6fad3d18ae4E@Base 3.2.4-0nkmi1~noble
 _ZN4core3fmt3num3imp52_$LT$impl$u20$core..fmt..Display$u20$for$u20$u16$GT$3fmt17h30cdf95644a74555E@Base 3.2.4-0nkmi1~noble
 _ZN4core3fmt3num3imp52_$LT$impl$u20$core..fmt..Display$u20$for$u20$u32$GT$3fmt17h8483afe4900e6922E@Base 3.2.4-0nkmi1~noble
 _ZN4core3fmt3num3imp52_$LT$impl$u20$core..fmt..Display$u20$for$u20$u64$GT$3fmt17he1409326fd29c9b2E@Base 3.2.4-0nkmi1~noble
 _ZN4core3fmt3num3imp52_$LT$impl$u20$core..fmt..LowerExp$u20$for$u20$i8$GT$3fmt17h91e43fcfe6e2588aE@Base 3.2.4-0nkmi1~noble
 _ZN4core3fmt3num3imp52_$LT$impl$u20$core..fmt..LowerExp$u20$for$u20$u8$GT$3fmt17h1d5bf0089417eb3aE@Base 3.2.4-0nkmi1~noble
 _ZN4core3fmt3num3imp52_$LT$impl$u20$core..fmt..UpperExp$u20$for$u20$i8$GT$3fmt17h5d647a369a62dcacE@Base 3.2.4-0nkmi1~noble
 _ZN4core3fmt3num3imp52_$LT$impl$u20$core..fmt..UpperExp$u20$for$u20$u8$GT$3fmt17h80186ccc550c5c59E@Base 3.2.4-0nkmi1~noble
 _ZN4core3fmt3num3imp53_$LT$impl$u20$core..fmt..LowerExp$u20$for$u20$i16$GT$3fmt17h115424729109c812E@Base 3.2.4-0nkmi1~noble
 _ZN4core3fmt3num3imp53_$LT$impl$u20$core..fmt..LowerExp$u20$for$u20$i32$GT$3fmt17h01fd8e9b9bf30ac7E@Base 3.2.4-0nkmi1~noble
 _ZN4core3fmt3num3imp53_$LT$impl$u20$core..fmt..LowerExp$u20$for$u20$i64$GT$3fmt17h3bd5c394c3f608a8E@Base 3.2.4-0nkmi1~noble
 _ZN4core3fmt3num3imp53_$LT$impl$u20$core..fmt..LowerExp$u20$for$u20$u16$GT$3fmt17h683c6e8501b7505aE@Base 3.2.4-0nkmi1~noble
 _ZN4core3fmt3num3imp53_$LT$impl$u20$core..fmt..LowerExp$u20$for$u20$u32$GT$3fmt17ha24d21e074e3dfd2E@Base 3.2.4-0nkmi1~noble
 _ZN4core3fmt3num3imp53_$LT$impl$u20$core..fmt..LowerExp$u20$for$u20$u64$GT$3fmt17h537f08fa63833fc9E@Base 3.2.4-0nkmi1~noble
 _ZN4core3fmt3num3imp53_$LT$impl$u20$core..fmt..UpperExp$u20$for$u20$i16$GT$3fmt17h5ba317bf826c0057E@Base 3.2.4-0nkmi1~noble
 _ZN4core3fmt3num3imp53_$LT$impl$u20$core..fmt..UpperExp$u20$for$u20$i32$GT$3fmt17h51105b32689c06e9E@Base 3.2.4-0nkmi1~noble
 _ZN4core3fmt3num3imp53_$LT$impl$u20$core..fmt..UpperExp$u20$for$u20$i64$GT$3fmt17hf2f0dbc1d0b5c191E@Base 3.2.4-0nkmi1~noble
 _ZN4core3fmt3num3imp53_$LT$impl$u20$core..fmt..UpperExp$u20$for$u20$u16$GT$3fmt17h2028b04fcb2759d6E@Base 3.2.4-0nkmi1~noble
 _ZN4core3fmt3num3imp53_$LT$impl$u20$core..fmt..UpperExp$u20$for$u20$u32$GT$3fmt17h83a18466ef81723dE@Base 3.2.4-0nkmi1~noble
 _ZN4core3fmt3num3imp53_$LT$impl$u20$core..fmt..UpperExp$u20$for$u20$u64$GT$3fmt17h6051238e2efb9e72E@Base 3.2.4-0nkmi1~noble
 _ZN4core3fmt3num3imp54_$LT$impl$u20$core..fmt..Display$u20$for$u20$isize$GT$3fmt17haa754e052108daa3E@Base 3.2.4-0nkmi1~noble
 _ZN4core3fmt3num3imp54_$LT$impl$u20$core..fmt..Display$u20$for$u20$usize$GT$3fmt17h491fc1947d9391d4E@Base 3.2.4-0nkmi1~noble
 _ZN4core3fmt3num3imp55_$LT$impl$u20$core..fmt..LowerExp$u20$for$u20$isize$GT$3fmt17h63007e7545cb9ce6E@Base 3.2.4-0nkmi1~noble
 _ZN4core3fmt3num3imp55_$LT$impl$u20$core..fmt..LowerExp$u20$for$u20$usize$GT$3fmt17hb2d1627a6bb6dfffE@Base 3.2.4-0nkmi1~noble
 _ZN4core3fmt3num3imp55_$LT$impl$u20$core..fmt..UpperExp$u20$for$u20$isize$GT$3fmt17hd1e59a6a4e8efa04E@Base 3.2.4-0nkmi1~noble
 _ZN4core3fmt3num3imp55_$LT$impl$u20$core..fmt..UpperExp$u20$for$u20$usize$GT$3fmt17h10155628c930d77cE@Base 3.2.4-0nkmi1~noble
 _ZN4core3fmt3num49_$LT$impl$u20$core..fmt..Octal$u20$for$u20$i8$GT$3fmt17hb1552099560f634cE@Base 3.2.4-0nkmi1~noble
 _ZN4core3fmt3num49_$LT$impl$u20$core..fmt..Octal$u20$for$u20$u8$GT$3fmt17h71edc1c3d1dec5fbE@Base 3.2.4-0nkmi1~noble
 _ZN4core3fmt3num50_$LT$impl$u20$core..fmt..Binary$u20$for$u20$i8$GT$3fmt17h76fe43d55a6323d3E@Base 3.2.4-0nkmi1~noble
 _ZN4core3fmt3num50_$LT$impl$u20$core..fmt..Binary$u20$for$u20$u8$GT$3fmt17hfb46ec3a89b361c3E@Base 3.2.4-0nkmi1~noble
 _ZN4core3fmt3num50_$LT$impl$u20$core..fmt..Octal$u20$for$u20$i16$GT$3fmt17h77abf02d6b5c19b9E@Base 3.2.4-0nkmi1~noble
 _ZN4core3fmt3num50_$LT$impl$u20$core..fmt..Octal$u20$for$u20$i32$GT$3fmt17hc6d931a2bc54b0ceE@Base 3.2.4-0nkmi1~noble
 _ZN4core3fmt3num50_$LT$impl$u20$core..fmt..Octal$u20$for$u20$i64$GT$3fmt17h5e1a5401006286faE@Base 3.2.4-0nkmi1~noble
 _ZN4core3fmt3num50_$LT$impl$u20$core..fmt..Octal$u20$for$u20$u16$GT$3fmt17h37b787756b9f81d0E@Base 3.2.4-0nkmi1~noble
 _ZN4core3fmt3num50_$LT$impl$u20$core..fmt..Octal$u20$for$u20$u32$GT$3fmt17hd4e63ed6ee6d5bb6E@Base 3.2.4-0nkmi1~noble
 _ZN4core3fmt3num50_$LT$impl$u20$core..fmt..Octal$u20$for$u20$u64$GT$3fmt17h20b310862963d9a8E@Base 3.2.4-0nkmi1~noble
 _ZN4core3fmt3num51_$LT$impl$u20$core..fmt..Binary$u20$for$u20$i16$GT$3fmt17h0a5d5773eb8d55e8E@Base 3.2.4-0nkmi1~noble
 _ZN4core3fmt3num51_$LT$impl$u20$core..fmt..Binary$u20$for$u20$i32$GT$3fmt17hf7694bd52479b46bE@Base 3.2.4-0nkmi1~noble
 _ZN4core3fmt3num51_$LT$impl$u20$core..fmt..Binary$u20$for$u20$i64$GT$3fmt17h990454c447d0476eE@Base 3.2.4-0nkmi1~noble
 _ZN4core3fmt3num51_$LT$impl$u20$core..fmt..Binary$u20$for$u20$u16$GT$3fmt17h51e817260193de34E@Base 3.2.4-0nkmi1~noble
 _ZN4core3fmt3num51_$LT$impl$u20$core..fmt..Binary$u20$for$u20$u32$GT$3fmt17h5936e1c0c6a554fbE@Base 3.2.4-0nkmi1~noble
 _ZN4core3fmt3num51_$LT$impl$u20$core..fmt..Binary$u20$for$u20$u64$GT$3fmt17h450d7f77c2d04ad8E@Base 3.2.4-0nkmi1~noble
 _ZN4core3fmt3num51_$LT$impl$u20$core..fmt..Octal$u20$for$u20$i128$GT$3fmt17h58e5ac55e491bc95E@Base 3.2.4-0nkmi1~noble
 _ZN4core3fmt3num51_$LT$impl$u20$core..fmt..Octal$u20$for$u20$u128$GT$3fmt17hd37e87218b9a70edE@Base 3.2.4-0nkmi1~noble
 _ZN4core3fmt3num52_$LT$impl$u20$core..fmt..Binary$u20$for$u20$i128$GT$3fmt17ha679d9798343e0d3E@Base 3.2.4-0nkmi1~noble
 _ZN4core3fmt3num52_$LT$impl$u20$core..fmt..Binary$u20$for$u20$u128$GT$3fmt17h0b6785099afaff88E@Base 3.2.4-0nkmi1~noble
 _ZN4core3fmt3num52_$LT$impl$u20$core..fmt..LowerHex$u20$for$u20$i8$GT$3fmt17h63373e203cf631c3E@Base 3.2.4-0nkmi1~noble
 _ZN4core3fmt3num52_$LT$impl$u20$core..fmt..LowerHex$u20$for$u20$u8$GT$3fmt17h0d922fde51d18e2fE@Base 3.2.4-0nkmi1~noble
 _ZN4core3fmt3num52_$LT$impl$u20$core..fmt..Octal$u20$for$u20$isize$GT$3fmt17h4915aad173bc609bE@Base 3.2.4-0nkmi1~noble
 _ZN4core3fmt3num52_$LT$impl$u20$core..fmt..Octal$u20$for$u20$usize$GT$3fmt17h4b8c60f2d19339eeE@Base 3.2.4-0nkmi1~noble
 _ZN4core3fmt3num52_$LT$impl$u20$core..fmt..UpperHex$u20$for$u20$i8$GT$3fmt17hac719b53e937198cE@Base 3.2.4-0nkmi1~noble
 _ZN4core3fmt3num52_$LT$impl$u20$core..fmt..UpperHex$u20$for$u20$u8$GT$3fmt17h3dbc64b43dca0262E@Base 3.2.4-0nkmi1~noble
 _ZN4core3fmt3num53_$LT$impl$u20$core..fmt..Binary$u20$for$u20$isize$GT$3fmt17h7da924493661e6aaE@Base 3.2.4-0nkmi1~noble
 _ZN4core3fmt3num53_$LT$impl$u20$core..fmt..Binary$u20$for$u20$usize$GT$3fmt17hc8ae7cf49e3759b8E@Base 3.2.4-0nkmi1~noble
 _ZN4core3fmt3num53_$LT$impl$u20$core..fmt..Display$u20$for$u20$i128$GT$3fmt17h022cdb38e26602daE@Base 3.2.4-0nkmi1~noble
 _ZN4core3fmt3num53_$LT$impl$u20$core..fmt..Display$u20$for$u20$u128$GT$3fmt17hd64963dd7d757d45E@Base 3.2.4-0nkmi1~noble
 _ZN4core3fmt3num53_$LT$impl$u20$core..fmt..LowerHex$u20$for$u20$i16$GT$3fmt17he5820f24a9783eeaE@Base 3.2.4-0nkmi1~noble
 _ZN4core3fmt3num53_$LT$impl$u20$core..fmt..LowerHex$u20$for$u20$i32$GT$3fmt17h1a387d3cf7cc1206E@Base 3.2.4-0nkmi1~noble
 _ZN4core3fmt3num53_$LT$impl$u20$core..fmt..LowerHex$u20$for$u20$i64$GT$3fmt17h033fd32932756d22E@Base 3.2.4-0nkmi1~noble
 _ZN4core3fmt3num53_$LT$impl$u20$core..fmt..LowerHex$u20$for$u20$u16$GT$3fmt17h3a0245018c4dccdeE@Base 3.2.4-0nkmi1~noble
 _ZN4core3fmt3num53_$LT$impl$u20$core..fmt..LowerHex$u20$for$u20$u32$GT$3fmt17h2a376f5ae046e5e0E@Base 3.2.4-0nkmi1~noble
 _ZN4core3fmt3num53_$LT$impl$u20$core..fmt..LowerHex$u20$for$u20$u64$GT$3fmt17hdc5f55dd5dd8000eE@Base 3.2.4-0nkmi1~noble
 _ZN4core3fmt3num53_$LT$impl$u20$core..fmt..UpperHex$u20$for$u20$i16$GT$3fmt17h25707f488290873cE@Base 3.2.4-0nkmi1~noble
 _ZN4core3fmt3num53_$LT$impl$u20$core..fmt..UpperHex$u20$for$u20$i32$GT$3fmt17hd8410ce08b37816bE@Base 3.2.4-0nkmi1~noble
 _ZN4core3fmt3num53_$LT$impl$u20$core..fmt..UpperHex$u20$for$u20$i64$GT$3fmt17haf120302a386402fE@Base 3.2.4-0nkmi1~noble
 _ZN4core3fmt3num53_$LT$impl$u20$core..fmt..UpperHex$u20$for$u20$u16$GT$3fmt17h804e1f3d5733f481E@Base 3.2.4-0nkmi1~noble
 _ZN4core3fmt3num53_$LT$impl$u20$core..fmt..UpperHex$u20$for$u20$u32$GT$3fmt17h31fd4ac6aafb821fE@Base 3.2.4-0nkmi1~noble
 _ZN4core3fmt3num53_$LT$impl$u20$core..fmt..UpperHex$u20$for$u20$u64$GT$3fmt17h702604823af260cdE@Base 3.2.4-0nkmi1~noble
 _ZN4core3fmt3num54_$LT$impl$u20$core..fmt..LowerExp$u20$for$u20$i128$GT$3fmt17hd3917274bb7701b3E@Base 3.2.4-0nkmi1~noble
 _ZN4core3fmt3num54_$LT$impl$u20$core..fmt..LowerExp$u20$for$u20$u128$GT$3fmt17hcd06ce9ddbea8770E@Base 3.2.4-0nkmi1~noble
 _ZN4core3fmt3num54_$LT$impl$u20$core..fmt..LowerHex$u20$for$u20$i128$GT$3fmt17he4a460bbe1958b1fE@Base 3.2.4-0nkmi1~noble
 _ZN4core3fmt3num54_$LT$impl$u20$core..fmt..LowerHex$u20$for$u20$u128$GT$3fmt17ha0b6418f585ea3ddE@Base 3.2.4-0nkmi1~noble
 _ZN4core3fmt3num54_$LT$impl$u20$core..fmt..UpperExp$u20$for$u20$i128$GT$3fmt17hcdab1edd7bd129baE@Base 3.2.4-0nkmi1~noble
 _ZN4core3fmt3num54_$LT$impl$u20$core..fmt..UpperExp$u20$for$u20$u128$GT$3fmt17hc99d3022db0880b9E@Base 3.2.4-0nkmi1~noble
 _ZN4core3fmt3num54_$LT$impl$u20$core..fmt..UpperHex$u20$for$u20$i128$GT$3fmt17h25353f670aac63ffE@Base 3.2.4-0nkmi1~noble
 _ZN4core3fmt3num54_$LT$impl$u20$core..fmt..UpperHex$u20$for$u20$u128$GT$3fmt17h030dbfab86e357f7E@Base 3.2.4-0nkmi1~noble
 _ZN4core3fmt3num55_$LT$impl$u20$core..fmt..LowerHex$u20$for$u20$isize$GT$3fmt17h4d6ba99d7b63d54dE@Base 3.2.4-0nkmi1~noble
 _ZN4core3fmt3num55_$LT$impl$u20$core..fmt..LowerHex$u20$for$u20$usize$GT$3fmt17h727752a76554c579E@Base 3.2.4-0nkmi1~noble
 _ZN4core3fmt3num55_$LT$impl$u20$core..fmt..UpperHex$u20$for$u20$isize$GT$3fmt17hc71db824adb33dfcE@Base 3.2.4-0nkmi1~noble
 _ZN4core3fmt3num55_$LT$impl$u20$core..fmt..UpperHex$u20$for$u20$usize$GT$3fmt17h6a3bf6ae7b9fb84aE@Base 3.2.4-0nkmi1~noble
 _ZN4core3fmt5float50_$LT$impl$u20$core..fmt..Debug$u20$for$u20$f32$GT$3fmt17ha7416d955c2706ddE@Base 3.2.4-0nkmi1~noble
 _ZN4core3fmt5float50_$LT$impl$u20$core..fmt..Debug$u20$for$u20$f64$GT$3fmt17h525646cfa653e4c8E@Base 3.2.4-0nkmi1~noble
 _ZN4core3fmt5float52_$LT$impl$u20$core..fmt..Display$u20$for$u20$f32$GT$3fmt17hce38b6b940105997E@Base 3.2.4-0nkmi1~noble
 _ZN4core3fmt5float52_$LT$impl$u20$core..fmt..Display$u20$for$u20$f64$GT$3fmt17hd1de2967945d27eaE@Base 3.2.4-0nkmi1~noble
 _ZN4core3fmt5float53_$LT$impl$u20$core..fmt..LowerExp$u20$for$u20$f32$GT$3fmt17h87e088c1a6eee3daE@Base 3.2.4-0nkmi1~noble
 _ZN4core3fmt5float53_$LT$impl$u20$core..fmt..LowerExp$u20$for$u20$f64$GT$3fmt17h13b2730f88607c28E@Base 3.2.4-0nkmi1~noble
 _ZN4core3fmt5float53_$LT$impl$u20$core..fmt..UpperExp$u20$for$u20$f32$GT$3fmt17h4bb194351a5a9bdeE@Base 3.2.4-0nkmi1~noble
 _ZN4core3fmt5float53_$LT$impl$u20$core..fmt..UpperExp$u20$for$u20$f64$GT$3fmt17he8672b91370300abE@Base 3.2.4-0nkmi1~noble
 _ZN4core3fmt5write17h4d5f6025aa566322E@Base 3.2.4-0nkmi1~noble
 _ZN4core3fmt8builders10DebugTuple5field17he53bcfe36a77387dE@Base 3.2.4-0nkmi1~noble
 _ZN4core3fmt8builders10DebugTuple6finish17h55dddf3e9bdfb1dfE@Base 3.2.4-0nkmi1~noble
 _ZN4core3fmt8builders10PadAdapter4wrap17hf719560c6d39fdfaE@Base 3.2.4-0nkmi1~noble
 _ZN4core3fmt8builders11DebugStruct21finish_non_exhaustive17h34635d337b807832E@Base 3.2.4-0nkmi1~noble
 _ZN4core3fmt8builders11DebugStruct5field17h0e4d535aee131a16E@Base 3.2.4-0nkmi1~noble
 _ZN4core3fmt8builders11DebugStruct6finish17h3a8403512d1c37feE@Base 3.2.4-0nkmi1~noble
 _ZN4core3fmt8builders8DebugMap3key17h188e3fb00308449aE@Base 3.2.4-0nkmi1~noble
 _ZN4core3fmt8builders8DebugMap5entry17haa18172a68d44186E@Base 3.2.4-0nkmi1~noble
 _ZN4core3fmt8builders8DebugMap5value17hca43ebd12d26b77bE@Base 3.2.4-0nkmi1~noble
 _ZN4core3fmt8builders8DebugMap6finish17h8bef5dca587f5f10E@Base 3.2.4-0nkmi1~noble
 _ZN4core3fmt8builders8DebugSet5entry17h3333b60bc5934e1eE@Base 3.2.4-0nkmi1~noble
 _ZN4core3fmt8builders8DebugSet6finish17h1a7eb726d7bad4a8E@Base 3.2.4-0nkmi1~noble
 _ZN4core3fmt8builders9DebugList5entry17h83e9cdb459135dacE@Base 3.2.4-0nkmi1~noble
 _ZN4core3fmt8builders9DebugList6finish17hfc7dc06c490576faE@Base 3.2.4-0nkmi1~noble
 _ZN4core3fmt9Formatter10debug_list17hac1f3552c393fd38E@Base 3.2.4-0nkmi1~noble
 _ZN4core3fmt9Formatter11debug_tuple17h5726fa92703682f3E@Base 3.2.4-0nkmi1~noble
 _ZN4core3fmt9Formatter12debug_struct17habc591f888417e85E@Base 3.2.4-0nkmi1~noble
 _ZN4core3fmt9Formatter12pad_integral17h904563cddde1b88cE@Base 3.2.4-0nkmi1~noble
 _ZN4core3fmt9Formatter25debug_tuple_field1_finish17h6686bbfc0cb72419E@Base 3.2.4-0nkmi1~noble
 _ZN4core3fmt9Formatter25debug_tuple_field2_finish17h7ca0f934d4769e9eE@Base 3.2.4-0nkmi1~noble
 _ZN4core3fmt9Formatter25debug_tuple_field3_finish17h72e02718bd72183cE@Base 3.2.4-0nkmi1~noble
 _ZN4core3fmt9Formatter25debug_tuple_field4_finish17hee4192396349dcfcE@Base 3.2.4-0nkmi1~noble
 _ZN4core3fmt9Formatter25debug_tuple_field5_finish17h079539b995de77acE@Base 3.2.4-0nkmi1~noble
 _ZN4core3fmt9Formatter25debug_tuple_fields_finish17hf82f9ca8982a8aaaE@Base 3.2.4-0nkmi1~noble
 _ZN4core3fmt9Formatter26debug_struct_field1_finish17h7908db0ac860a6afE@Base 3.2.4-0nkmi1~noble
 _ZN4core3fmt9Formatter26debug_struct_field2_finish17h18958cbf9bbb0667E@Base 3.2.4-0nkmi1~noble
 _ZN4core3fmt9Formatter26debug_struct_field3_finish17h8c97eaf14b5fe537E@Base 3.2.4-0nkmi1~noble
 _ZN4core3fmt9Formatter26debug_struct_field4_finish17h8432be8e8db9c014E@Base 3.2.4-0nkmi1~noble
 _ZN4core3fmt9Formatter26debug_struct_field5_finish17hfdaa77b5c3b15b78E@Base 3.2.4-0nkmi1~noble
 _ZN4core3fmt9Formatter26debug_struct_fields_finish17hc35e9a5ae58ef43cE@Base 3.2.4-0nkmi1~noble
 _ZN4core3fmt9Formatter3pad17h829d3b6a2d26537cE@Base 3.2.4-0nkmi1~noble
 _ZN4core3fmt9Formatter9debug_map17h879acaad733e5983E@Base 3.2.4-0nkmi1~noble
 _ZN4core3fmt9Formatter9debug_set17h3961d7d19608a640E@Base 3.2.4-0nkmi1~noble
 _ZN4core3fmt9Formatter9write_fmt17h0c606b7719e6a1d6E@Base 3.2.4-0nkmi1~noble
 _ZN4core3fmt9Formatter9write_str17hac55fef25888b77dE@Base 3.2.4-0nkmi1~noble
 _ZN4core3net6parser44_$LT$impl$u20$core..net..ip_addr..IpAddr$GT$11parse_ascii17h7a57ac1873c4c52bE@Base 3.2.4-0nkmi1~noble
 _ZN4core3net6parser46_$LT$impl$u20$core..net..ip_addr..Ipv4Addr$GT$11parse_ascii17h75836e52e15fe4ffE@Base 3.2.4-0nkmi1~noble
 _ZN4core3net6parser46_$LT$impl$u20$core..net..ip_addr..Ipv6Addr$GT$11parse_ascii17ha429c001fac3061dE@Base 3.2.4-0nkmi1~noble
 _ZN4core3net6parser52_$LT$impl$u20$core..net..socket_addr..SocketAddr$GT$11parse_ascii17hbbae2a87b6bf0128E@Base 3.2.4-0nkmi1~noble
 _ZN4core3net6parser54_$LT$impl$u20$core..net..socket_addr..SocketAddrV4$GT$11parse_ascii17h535691178745a622E@Base 3.2.4-0nkmi1~noble
 _ZN4core3net6parser54_$LT$impl$u20$core..net..socket_addr..SocketAddrV6$GT$11parse_ascii17h3af7fc947c6d0a1aE@Base 3.2.4-0nkmi1~noble
 _ZN4core3net6parser83_$LT$impl$u20$core..str..traits..FromStr$u20$for$u20$core..net..ip_addr..IpAddr$GT$8from_str17hecfee9d7d0056aa1E@Base 3.2.4-0nkmi1~noble
 _ZN4core3net6parser85_$LT$impl$u20$core..str..traits..FromStr$u20$for$u20$core..net..ip_addr..Ipv4Addr$GT$8from_str17hd4a989cdaaff07efE@Base 3.2.4-0nkmi1~noble
 _ZN4core3net6parser85_$LT$impl$u20$core..str..traits..FromStr$u20$for$u20$core..net..ip_addr..Ipv6Addr$GT$8from_str17h0bf61704b1f08086E@Base 3.2.4-0nkmi1~noble
 _ZN4core3net6parser91_$LT$impl$u20$core..str..traits..FromStr$u20$for$u20$core..net..socket_addr..SocketAddr$GT$8from_str17h9f28f03002abd4ceE@Base 3.2.4-0nkmi1~noble
 _ZN4core3net6parser93_$LT$impl$u20$core..str..traits..FromStr$u20$for$u20$core..net..socket_addr..SocketAddrV4$GT$8from_str17h4ab828ee8248d76eE@Base 3.2.4-0nkmi1~noble
 _ZN4core3net6parser93_$LT$impl$u20$core..str..traits..FromStr$u20$for$u20$core..net..socket_addr..SocketAddrV6$GT$8from_str17hf4b427e7ba2b5324E@Base 3.2.4-0nkmi1~noble
 _ZN4core3num20_$LT$impl$u20$i8$GT$14from_str_radix17hb2b50236cd3d86b7E@Base 3.2.4-0nkmi1~noble
 _ZN4core3num20_$LT$impl$u20$u8$GT$14from_str_radix17hae1501421da63a78E@Base 3.2.4-0nkmi1~noble
 _ZN4core3num21_$LT$impl$u20$i16$GT$14from_str_radix17h5a1ac2822f25bdaeE@Base 3.2.4-0nkmi1~noble
 _ZN4core3num21_$LT$impl$u20$i32$GT$14from_str_radix17hf406e7d72ce326dbE@Base 3.2.4-0nkmi1~noble
 _ZN4core3num21_$LT$impl$u20$i64$GT$14from_str_radix17hbc98960711ed5bb3E@Base 3.2.4-0nkmi1~noble
 _ZN4core3num21_$LT$impl$u20$u16$GT$14from_str_radix17hb7333ff5dcbfe75dE@Base 3.2.4-0nkmi1~noble
 _ZN4core3num21_$LT$impl$u20$u32$GT$14from_str_radix17h329387d73f7cf4cbE@Base 3.2.4-0nkmi1~noble
 _ZN4core3num21_$LT$impl$u20$u64$GT$14from_str_radix17h8ec89d61254916e7E@Base 3.2.4-0nkmi1~noble
 _ZN4core3num22_$LT$impl$u20$i128$GT$14from_str_radix17h134105e5047eccc3E@Base 3.2.4-0nkmi1~noble
 _ZN4core3num22_$LT$impl$u20$u128$GT$14from_str_radix17h16d47b1272929ccfE@Base 3.2.4-0nkmi1~noble
 _ZN4core3num23_$LT$impl$u20$isize$GT$14from_str_radix17h3726249fca83dff3E@Base 3.2.4-0nkmi1~noble
 _ZN4core3num23_$LT$impl$u20$usize$GT$14from_str_radix17hdc121e332d5a10e5E@Base 3.2.4-0nkmi1~noble
 _ZN4core3num3fmt4Part5write17h08d9c88a450a23f0E@Base 3.2.4-0nkmi1~noble
 _ZN4core3num3fmt9Formatted3len17h963d609737029921E@Base 3.2.4-0nkmi1~noble
 _ZN4core3num3fmt9Formatted5write17h3827a3a2006b3672E@Base 3.2.4-0nkmi1~noble
 _ZN4core3num59_$LT$impl$u20$core..str..traits..FromStr$u20$for$u20$i8$GT$8from_str17h96cc555280dbb227E@Base 3.2.4-0nkmi1~noble
 _ZN4core3num59_$LT$impl$u20$core..str..traits..FromStr$u20$for$u20$u8$GT$8from_str17h1068fe16f5e67b9fE@Base 3.2.4-0nkmi1~noble
 _ZN4core3num60_$LT$impl$u20$core..str..traits..FromStr$u20$for$u20$i16$GT$8from_str17h9d582673f3b4a723E@Base 3.2.4-0nkmi1~noble
 _ZN4core3num60_$LT$impl$u20$core..str..traits..FromStr$u20$for$u20$i32$GT$8from_str17h37ef91a34ed85a46E@Base 3.2.4-0nkmi1~noble
 _ZN4core3num60_$LT$impl$u20$core..str..traits..FromStr$u20$for$u20$i64$GT$8from_str17hc8f20b7f02b7f037E@Base 3.2.4-0nkmi1~noble
 _ZN4core3num60_$LT$impl$u20$core..str..traits..FromStr$u20$for$u20$u16$GT$8from_str17h97ce8d509a590689E@Base 3.2.4-0nkmi1~noble
 _ZN4core3num60_$LT$impl$u20$core..str..traits..FromStr$u20$for$u20$u32$GT$8from_str17hd856ace511491328E@Base 3.2.4-0nkmi1~noble
 _ZN4core3num60_$LT$impl$u20$core..str..traits..FromStr$u20$for$u20$u64$GT$8from_str17hb0fd9637d7b7bc63E@Base 3.2.4-0nkmi1~noble
 _ZN4core3num61_$LT$impl$u20$core..str..traits..FromStr$u20$for$u20$i128$GT$8from_str17h32f6b96783654826E@Base 3.2.4-0nkmi1~noble
 _ZN4core3num61_$LT$impl$u20$core..str..traits..FromStr$u20$for$u20$u128$GT$8from_str17h39373ff8a1f5c0b7E@Base 3.2.4-0nkmi1~noble
 _ZN4core3num62_$LT$impl$u20$core..str..traits..FromStr$u20$for$u20$isize$GT$8from_str17hffa6db7a1da12c59E@Base 3.2.4-0nkmi1~noble
 _ZN4core3num62_$LT$impl$u20$core..str..traits..FromStr$u20$for$u20$usize$GT$8from_str17h41abe3d86d256c1dE@Base 3.2.4-0nkmi1~noble
 _ZN4core3num6bignum5tests6Big8x310bit_length17hd0957a81825f8675E@Base 3.2.4-0nkmi1~noble
 _ZN4core3num6bignum5tests6Big8x310mul_digits17h19fa62c6464ec4b2E@Base 3.2.4-0nkmi1~noble
 _ZN4core3num6bignum5tests6Big8x313div_rem_small17h29edd5287592ce76E@Base 3.2.4-0nkmi1~noble
 _ZN4core3num6bignum5tests6Big8x33add17ha7d0a94c25672013E@Base 3.2.4-0nkmi1~noble
 _ZN4core3num6bignum5tests6Big8x33sub17h219171cae3331c38E@Base 3.2.4-0nkmi1~noble
 _ZN4core3num6bignum5tests6Big8x36digits17h435ea113781d6cfaE@Base 3.2.4-0nkmi1~noble
 _ZN4core3num6bignum5tests6Big8x37div_rem17hea7647a3c7c02d24E@Base 3.2.4-0nkmi1~noble
 _ZN4core3num6bignum5tests6Big8x37get_bit17hba4483881888b948E@Base 3.2.4-0nkmi1~noble
 _ZN4core3num6bignum5tests6Big8x37is_zero17h0f10faf3eb3a9442E@Base 3.2.4-0nkmi1~noble
 _ZN4core3num6bignum5tests6Big8x38from_u6417h4be2bedfb95c7bc5E@Base 3.2.4-0nkmi1~noble
 _ZN4core3num6bignum5tests6Big8x38mul_pow217h1b18d80a48bd91f0E@Base 3.2.4-0nkmi1~noble
 _ZN4core3num6bignum5tests6Big8x38mul_pow517h919a957372f74512E@Base 3.2.4-0nkmi1~noble
 _ZN4core3num6bignum5tests6Big8x39add_small17h78af74971ef4ba42E@Base 3.2.4-0nkmi1~noble
 _ZN4core3num6bignum5tests6Big8x39mul_small17h0c446df896526716E@Base 3.2.4-0nkmi1~noble
 _ZN4core3num6bignum8Big32x4010bit_length17h35b34fcc5d9703a6E@Base 3.2.4-0nkmi1~noble
 _ZN4core3num6bignum8Big32x4010mul_digits17h0a9ed48b90a6e378E@Base 3.2.4-0nkmi1~noble
 _ZN4core3num6bignum8Big32x4013div_rem_small17he6848f3a800d6561E@Base 3.2.4-0nkmi1~noble
 _ZN4core3num6bignum8Big32x403add17h42b650ab8cc5f910E@Base 3.2.4-0nkmi1~noble
 _ZN4core3num6bignum8Big32x403sub17hf0e12ac84344ec93E@Base 3.2.4-0nkmi1~noble
 _ZN4core3num6bignum8Big32x406digits17h5aaff4ccb2000e19E@Base 3.2.4-0nkmi1~noble
 _ZN4core3num6bignum8Big32x407div_rem17hb9dc52969ba149b2E@Base 3.2.4-0nkmi1~noble
 _ZN4core3num6bignum8Big32x407get_bit17h11616d4db0fa4d02E@Base 3.2.4-0nkmi1~noble
 _ZN4core3num6bignum8Big32x407is_zero17hbd972211284467e8E@Base 3.2.4-0nkmi1~noble
 _ZN4core3num6bignum8Big32x408from_u6417h5e698fde32c5ad3cE@Base 3.2.4-0nkmi1~noble
 _ZN4core3num6bignum8Big32x408mul_pow217hfe24599fb971d01cE@Base 3.2.4-0nkmi1~noble
 _ZN4core3num6bignum8Big32x408mul_pow517h58273379899182afE@Base 3.2.4-0nkmi1~noble
 _ZN4core3num6bignum8Big32x409add_small17hef2e676cf5ccd58eE@Base 3.2.4-0nkmi1~noble
 _ZN4core3num6bignum8Big32x409mul_small17h8ae66a99eca4c1d2E@Base 3.2.4-0nkmi1~noble
 _ZN4core3num7dec2flt5parse12parse_number17h2ae5275fdf9feae2E@Base 3.2.4-0nkmi1~noble
 _ZN4core3num7dec2flt60_$LT$impl$u20$core..str..traits..FromStr$u20$for$u20$f32$GT$8from_str17h001f192ec7047819E@Base 3.2.4-0nkmi1~noble
 _ZN4core3num7dec2flt60_$LT$impl$u20$core..str..traits..FromStr$u20$for$u20$f64$GT$8from_str17h4730bb33a262b143E@Base 3.2.4-0nkmi1~noble
 _ZN4core3num7dec2flt6lemire22compute_product_approx17h25dcaf7f83b694f1E@Base 3.2.4-0nkmi1~noble
 _ZN4core3num7dec2flt7decimal13parse_decimal17h87cd67e1838f9a1bE@Base 3.2.4-0nkmi1~noble
 _ZN4core3num7dec2flt7decimal7Decimal10left_shift17he124dad96dd866fcE@Base 3.2.4-0nkmi1~noble
 _ZN4core3num7dec2flt7decimal7Decimal11right_shift17h1bddfbfca4e48cc0E@Base 3.2.4-0nkmi1~noble
 _ZN4core3num7dec2flt7decimal7Decimal5round17h12c47365bd8dd384E@Base 3.2.4-0nkmi1~noble
 _ZN4core3num7flt2dec17digits_to_dec_str17h1afb269a2f47549fE@Base 3.2.4-0nkmi1~noble
 _ZN4core3num7flt2dec17digits_to_exp_str17h2b64eeb2852137ebE@Base 3.2.4-0nkmi1~noble
 _ZN4core3num7flt2dec8round_up17h0947907558885205E@Base 3.2.4-0nkmi1~noble
 _ZN4core3num7flt2dec8strategy5grisu12CACHED_POW1017h0f5d157922f3924cE@Base 3.2.4-0nkmi1~noble
 _ZN4core3num7flt2dec8strategy5grisu12cached_power17h2f96b832de1ef660E@Base 3.2.4-0nkmi1~noble
 _ZN4core3num7flt2dec8strategy5grisu12format_exact17h32a505f487314436E@Base 3.2.4-0nkmi1~noble
 _ZN4core3num7flt2dec8strategy5grisu15format_shortest17h2f93079029c2ad68E@Base 3.2.4-0nkmi1~noble
 _ZN4core3num7flt2dec8strategy5grisu16format_exact_opt17h1d3313949ede3269E@Base 3.2.4-0nkmi1~noble
 _ZN4core3num7flt2dec8strategy5grisu19format_shortest_opt17h070b5b3fd18f020bE@Base 3.2.4-0nkmi1~noble
 _ZN4core3num7flt2dec8strategy6dragon12format_exact17h5a54f4f9ad26eba5E@Base 3.2.4-0nkmi1~noble
 _ZN4core3num7flt2dec8strategy6dragon15format_shortest17h131176d11f9cacd7E@Base 3.2.4-0nkmi1~noble
 _ZN4core3num7flt2dec8strategy6dragon9mul_pow1017hb7aaa0c0a8153be0E@Base 3.2.4-0nkmi1~noble
 _ZN4core3num7flt2dec9estimator23estimate_scaling_factor17ha077edd9ae369c23E@Base 3.2.4-0nkmi1~noble
 _ZN4core3num9diy_float2Fp12normalize_to17h51ef14c350c06933E@Base 3.2.4-0nkmi1~noble
 _ZN4core3num9int_log1030panic_for_nonpositive_argument17he383a43e7bad7da5E@Base 3.2.4-0nkmi1~noble
 _ZN4core3str16slice_error_fail17h0e9ca987741879a8E@Base 3.2.4-0nkmi1~noble
 _ZN4core3str19slice_error_fail_ct17h9f21ba69eee3af34E@Base 3.2.4-0nkmi1~noble
 _ZN4core3str19slice_error_fail_rt17h0796d74efcec8a83E@Base 3.2.4-0nkmi1~noble
 _ZN4core3str21_$LT$impl$u20$str$GT$12escape_debug17hff7e40921a1f0076E@Base 3.2.4-0nkmi1~noble
 _ZN4core3str5count14do_count_chars17hb6a1370204a1726eE@Base 3.2.4-0nkmi1~noble
 _ZN4core3str5count23char_count_general_case17h2e3a1c8eb98e786aE@Base 3.2.4-0nkmi1~noble
 _ZN4core3str6traits23str_index_overflow_fail17h2bb907f7652eab00E@Base 3.2.4-0nkmi1~noble
 _ZN4core3str7pattern11StrSearcher3new17h6f23989a9cae6b06E@Base 3.2.4-0nkmi1~noble
 _ZN4core3str8converts13from_utf8_mut17hdf58e6b2cb4db2f1E@Base 3.2.4-0nkmi1~noble
 _ZN4core3str8converts9from_utf817h165305aed4c10195E@Base 3.2.4-0nkmi1~noble
 _ZN4core4cell22panic_already_borrowed17he9ae6498ad67ebe9E@Base 3.2.4-0nkmi1~noble
 _ZN4core4cell30panic_already_mutably_borrowed17h555592ff75013d4aE@Base 3.2.4-0nkmi1~noble
 _ZN4core4char11EscapeDebug5clear17hc80c92de4f57a07aE@Base 3.2.4-0nkmi1~noble
 _ZN4core4char11EscapeDebug9backslash17hfc800f8cf7bfb6d1E@Base 3.2.4-0nkmi1~noble
 _ZN4core4char13EscapeDefault9backslash17h79bc1acd6d42d02fE@Base 3.2.4-0nkmi1~noble
 _ZN4core4char13EscapeDefault9printable17h0c2b72143b427cfbE@Base 3.2.4-0nkmi1~noble
 _ZN4core4char13EscapeUnicode3new17h418868332bb3f66aE@Base 3.2.4-0nkmi1~noble
 _ZN4core5ascii14escape_default17hb118cffb0ebc026dE@Base 3.2.4-0nkmi1~noble
 _ZN4core5slice29_$LT$impl$u20$$u5b$T$u5d$$GT$15copy_from_slice17len_mismatch_fail17h64d32321bb906df9E@Base 3.2.4-0nkmi1~noble
 _ZN4core5slice29_$LT$impl$u20$$u5b$T$u5d$$GT$16align_to_offsets3gcd17h44d69d56d8c5d49fE@Base 3.2.4-0nkmi1~noble
 _ZN4core5slice5index10into_range17h9ce44230d6d10fb9E@Base 3.2.4-0nkmi1~noble
 _ZN4core5slice5index16into_slice_range17h4ac2a04dd706758eE@Base 3.2.4-0nkmi1~noble
 _ZN4core5slice5index22slice_index_order_fail17h6d57d8e74134684eE@Base 3.2.4-0nkmi1~noble
 _ZN4core5slice5index24slice_end_index_len_fail17h602ac246624b5cc6E@Base 3.2.4-0nkmi1~noble
 _ZN4core5slice5index26slice_start_index_len_fail17h2c7b7d9b847aff4dE@Base 3.2.4-0nkmi1~noble
 _ZN4core5slice5index29slice_end_index_overflow_fail17h074f840ec4871a48E@Base 3.2.4-0nkmi1~noble
 _ZN4core5slice5index31slice_start_index_overflow_fail17h5858ac3b8e426b90E@Base 3.2.4-0nkmi1~noble
 _ZN4core5slice6memchr14memchr_aligned17h3b88b5c99a7c976fE@Base 3.2.4-0nkmi1~noble
 _ZN4core5slice6memchr7memrchr17ha7d7be8234c99573E@Base 3.2.4-0nkmi1~noble
 _ZN4core6option13expect_failed17hd0fb791ee88ae8a9E@Base 3.2.4-0nkmi1~noble
 _ZN4core6result13unwrap_failed17h8393ef8d489acb45E@Base 3.2.4-0nkmi1~noble
 _ZN4core7unicode12unicode_data10alphabetic6lookup17h69373fc6bfd50aa2E@Base 3.2.4-0nkmi1~noble
 _ZN4core7unicode12unicode_data11conversions8to_lower17ha283c8c1f773b396E@Base 3.2.4-0nkmi1~noble
 _ZN4core7unicode12unicode_data11conversions8to_upper17ha5806cbb1de6fc84E@Base 3.2.4-0nkmi1~noble
 _ZN4core7unicode12unicode_data11white_space14WHITESPACE_MAP17h0e648e8ad71e50daE@Base 3.2.4-0nkmi1~noble
 _ZN4core7unicode12unicode_data14case_ignorable6lookup17h71ab9e3a8581e3f9E@Base 3.2.4-0nkmi1~noble
 _ZN4core7unicode12unicode_data15grapheme_extend6lookup17hae32b8be42eb1f80E@Base 3.2.4-0nkmi1~noble
 _ZN4core7unicode12unicode_data1n6lookup17hc997a0a623189ea6E@Base 3.2.4-0nkmi1~noble
 _ZN4core7unicode12unicode_data2cc6lookup17hcf68d9be4c363d3eE@Base 3.2.4-0nkmi1~noble
 _ZN4core7unicode12unicode_data5cased6lookup17hd2e089e5743da6b6E@Base 3.2.4-0nkmi1~noble
 _ZN4core7unicode12unicode_data9lowercase6lookup17h00e4d226bab7054dE@Base 3.2.4-0nkmi1~noble
 _ZN4core7unicode12unicode_data9uppercase6lookup17h46b97d2d4945ea7aE@Base 3.2.4-0nkmi1~noble
 _ZN4core7unicode9printable12is_printable17h94d9d225c4bcb2e4E@Base 3.2.4-0nkmi1~noble
 _ZN4core9panicking14panic_explicit17h8b17c06d473ddc73E@Base 3.2.4-0nkmi1~noble
 _ZN4core9panicking14panic_nounwind17hcd3486f3e48f35d3E@Base 3.2.4-0nkmi1~noble
 _ZN4core9panicking15const_panic_fmt17ha579bafce9f19cf7E@Base 3.2.4-0nkmi1~noble
 _ZN4core9panicking16panic_in_cleanup17h97fd12dcccb97c7fE@Base 3.2.4-0nkmi1~noble
 _ZN4core9panicking18panic_bounds_check17h6879eeb39abdf99dE@Base 3.2.4-0nkmi1~noble
 _ZN4core9panicking18panic_nounwind_fmt17h1adca9102836a93aE@Base 3.2.4-0nkmi1~noble
 _ZN4core9panicking19assert_failed_inner17h9c72386c5837d027E@Base 3.2.4-0nkmi1~noble
 _ZN4core9panicking19panic_cannot_unwind17heae6e006831d6899E@Base 3.2.4-0nkmi1~noble
 _ZN4core9panicking26panic_nounwind_nobacktrace17h8efac163ed5803eeE@Base 3.2.4-0nkmi1~noble
 _ZN4core9panicking36panic_misaligned_pointer_dereference17h192919cf93ec2cefE@Base 3.2.4-0nkmi1~noble
 _ZN4core9panicking5panic17hf516d800ede7db8cE@Base 3.2.4-0nkmi1~noble
 _ZN4core9panicking9panic_fmt17hef0307862026e6f9E@Base 3.2.4-0nkmi1~noble
 _ZN50_$LT$std..fs..File$u20$as$u20$core..fmt..Debug$GT$3fmt17hd9b4e0e9733671b4E@Base 3.2.4-0nkmi1~noble
 _ZN50_$LT$u16$u20$as$u20$core..num..bignum..FullOps$GT$12full_div_rem17h04d08e94f47fb409E@Base 3.2.4-0nkmi1~noble
 _ZN50_$LT$u32$u20$as$u20$core..num..bignum..FullOps$GT$12full_div_rem17hce5ae77a27c38295E@Base 3.2.4-0nkmi1~noble
 _ZN51_$LT$$RF$std..fs..File$u20$as$u20$std..io..Read$GT$11read_to_end17hdc9390cac82b113eE@Base 3.2.4-0nkmi1~noble
 _ZN51_$LT$$RF$std..fs..File$u20$as$u20$std..io..Read$GT$14read_to_string17ha29bc8b951341a22E@Base 3.2.4-0nkmi1~noble
 _ZN51_$LT$$RF$std..fs..File$u20$as$u20$std..io..Seek$GT$4seek17h32cd404d2f0e89ecE@Base 3.2.4-0nkmi1~noble
 _ZN51_$LT$std..env..Args$u20$as$u20$core..fmt..Debug$GT$3fmt17hb535863350844487E@Base 3.2.4-0nkmi1~noble
 _ZN51_$LT$std..env..Vars$u20$as$u20$core..fmt..Debug$GT$3fmt17h25f838b6714c3d13E@Base 3.2.4-0nkmi1~noble
 _ZN52_$LT$$RF$std..fs..File$u20$as$u20$std..io..Write$GT$14write_vectored17hcb860678b53c5043E@Base 3.2.4-0nkmi1~noble
 _ZN52_$LT$$RF$std..fs..File$u20$as$u20$std..io..Write$GT$5write17h31e7f0848d77566dE@Base 3.2.4-0nkmi1~noble
 _ZN52_$LT$std..path..Iter$u20$as$u20$core..fmt..Debug$GT$3fmt17h27cf764d124cb9aeE@Base 3.2.4-0nkmi1~noble
 _ZN52_$LT$std..path..Path$u20$as$u20$core..fmt..Debug$GT$3fmt17h4f5c973aa232c8dbE@Base 3.2.4-0nkmi1~noble
 _ZN53_$LT$adler..Adler32$u20$as$u20$core..hash..Hasher$GT$5write17h12510232b2cd0ce3E@Base 3.2.4-0nkmi1~noble
 _ZN53_$LT$std..env..ArgsOs$u20$as$u20$core..fmt..Debug$GT$3fmt17ha53aa45725a1b751E@Base 3.2.4-0nkmi1~noble
 _ZN53_$LT$std..env..VarsOs$u20$as$u20$core..fmt..Debug$GT$3fmt17hb3a60c4aad62cc8fE@Base 3.2.4-0nkmi1~noble
 _ZN53_$LT$std..io..IoSlice$u20$as$u20$core..fmt..Debug$GT$3fmt17hf6aeb9c7e5f429cbE@Base 3.2.4-0nkmi1~noble
 _ZN54_$LT$core..ffi..c_void$u20$as$u20$core..fmt..Debug$GT$3fmt17h746a8fc6a1772cebE@Base 3.2.4-0nkmi1~noble
 _ZN54_$LT$std..fs..DirEntry$u20$as$u20$core..fmt..Debug$GT$3fmt17h03aba95267c380dcE@Base 3.2.4-0nkmi1~noble
 _ZN54_$LT$std..fs..Metadata$u20$as$u20$core..fmt..Debug$GT$3fmt17h47445289dc3fc1e4E@Base 3.2.4-0nkmi1~noble
 _ZN55_$LT$core..fmt..Error$u20$as$u20$core..fmt..Display$GT$3fmt17h2600f4d723e463beE@Base 3.2.4-0nkmi1~noble
 _ZN55_$LT$std..io..stdio..Stdin$u20$as$u20$std..io..Read$GT$10read_exact17hb5526429837673a5E@Base 3.2.4-0nkmi1~noble
 _ZN55_$LT$std..io..stdio..Stdin$u20$as$u20$std..io..Read$GT$11read_to_end17h5da2b873c6fc0a1dE@Base 3.2.4-0nkmi1~noble
 _ZN55_$LT$std..io..stdio..Stdin$u20$as$u20$std..io..Read$GT$13read_vectored17hba511666294039d0E@Base 3.2.4-0nkmi1~noble
 _ZN55_$LT$std..io..stdio..Stdin$u20$as$u20$std..io..Read$GT$14read_to_string17h421d1e3c68ad7870E@Base 3.2.4-0nkmi1~noble
 _ZN55_$LT$std..io..stdio..Stdin$u20$as$u20$std..io..Read$GT$4read17h06904b5b7f19fa1cE@Base 3.2.4-0nkmi1~noble
 _ZN55_$LT$std..io..stdio..Stdin$u20$as$u20$std..io..Read$GT$8read_buf17h06a93aba153636baE@Base 3.2.4-0nkmi1~noble
 _ZN55_$LT$std..io..util..Repeat$u20$as$u20$std..io..Read$GT$8read_buf17hfe89e5d2d1f76bd7E@Base 3.2.4-0nkmi1~noble
 _ZN55_$LT$std..path..Display$u20$as$u20$core..fmt..Debug$GT$3fmt17ha76d0a3660b19e30E@Base 3.2.4-0nkmi1~noble
 _ZN55_$LT$std..path..PathBuf$u20$as$u20$core..fmt..Debug$GT$3fmt17h0efc13672d1fc987E@Base 3.2.4-0nkmi1~noble
 _ZN55_$LT$std..time..Instant$u20$as$u20$core..fmt..Debug$GT$3fmt17h8da0fde03112e07bE@Base 3.2.4-0nkmi1~noble
 _ZN56_$LT$std..io..IoSliceMut$u20$as$u20$core..fmt..Debug$GT$3fmt17h1b2bc36c1e04b560E@Base 3.2.4-0nkmi1~noble
 _ZN56_$LT$std..process..Child$u20$as$u20$core..fmt..Debug$GT$3fmt17h38bdedd196dddcecE@Base 3.2.4-0nkmi1~noble
 _ZN56_$LT$std..process..Stdio$u20$as$u20$core..fmt..Debug$GT$3fmt17h6e200bd714230194E@Base 3.2.4-0nkmi1~noble
 _ZN56_$LT$std..thread..Thread$u20$as$u20$core..fmt..Debug$GT$3fmt17ha9bcd6422efb1ed6E@Base 3.2.4-0nkmi1~noble
 _ZN57_$LT$alloc..string..Drain$u20$as$u20$core..fmt..Debug$GT$3fmt17hf933915c5b3ec677E@Base 3.2.4-0nkmi1~noble
 _ZN57_$LT$core..error..Request$u20$as$u20$core..fmt..Debug$GT$3fmt17h351c1fbf39a3f1deE@Base 3.2.4-0nkmi1~noble
 _ZN57_$LT$core..fmt..Arguments$u20$as$u20$core..fmt..Debug$GT$3fmt17hefd06da6fd08e974E@Base 3.2.4-0nkmi1~noble
 _ZN57_$LT$core..fmt..Formatter$u20$as$u20$core..fmt..Write$GT$10write_char17h0d1338b307cf9c3cE@Base 3.2.4-0nkmi1~noble
 _ZN57_$LT$core..fmt..Formatter$u20$as$u20$core..fmt..Write$GT$9write_fmt17ha9dd192b41adb04eE@Base 3.2.4-0nkmi1~noble
 _ZN57_$LT$core..fmt..Formatter$u20$as$u20$core..fmt..Write$GT$9write_str17h6316170aff9d1353E@Base 3.2.4-0nkmi1~noble
 _ZN57_$LT$core..time..Duration$u20$as$u20$core..fmt..Debug$GT$3fmt17h1672b7a58bada332E@Base 3.2.4-0nkmi1~noble
 _ZN57_$LT$std..env..SplitPaths$u20$as$u20$core..fmt..Debug$GT$3fmt17h872214ff7aa28626E@Base 3.2.4-0nkmi1~noble
 _ZN57_$LT$std..env..VarError$u20$as$u20$core..fmt..Display$GT$3fmt17ha3fc58cca16d2ce1E@Base 3.2.4-0nkmi1~noble
 _ZN57_$LT$std..io..stdio..Stderr$u20$as$u20$std..io..Write$GT$14write_vectored17hbd7213fa1a9acf54E@Base 3.2.4-0nkmi1~noble
 _ZN57_$LT$std..io..stdio..Stderr$u20$as$u20$std..io..Write$GT$18write_all_vectored17h27fe361b4d98931aE@Base 3.2.4-0nkmi1~noble
 _ZN57_$LT$std..io..stdio..Stderr$u20$as$u20$std..io..Write$GT$5flush17hec89bc7abbf3a44eE@Base 3.2.4-0nkmi1~noble
 _ZN57_$LT$std..io..stdio..Stderr$u20$as$u20$std..io..Write$GT$5write17h5ace56f7edc40cd5E@Base 3.2.4-0nkmi1~noble
 _ZN57_$LT$std..io..stdio..Stderr$u20$as$u20$std..io..Write$GT$9write_all17h1566fc4d7d393d7dE@Base 3.2.4-0nkmi1~noble
 _ZN57_$LT$std..io..stdio..Stderr$u20$as$u20$std..io..Write$GT$9write_fmt17he659df7537d38b01E@Base 3.2.4-0nkmi1~noble
 _ZN57_$LT$std..io..stdio..Stdout$u20$as$u20$std..io..Write$GT$14write_vectored17hcaf7c8fbee66d6f5E@Base 3.2.4-0nkmi1~noble
 _ZN57_$LT$std..io..stdio..Stdout$u20$as$u20$std..io..Write$GT$18write_all_vectored17h4607914b0dc0fb77E@Base 3.2.4-0nkmi1~noble
 _ZN57_$LT$std..io..stdio..Stdout$u20$as$u20$std..io..Write$GT$5flush17h076d27e3af7506c5E@Base 3.2.4-0nkmi1~noble
 _ZN57_$LT$std..io..stdio..Stdout$u20$as$u20$std..io..Write$GT$5write17ha3e187b99040d6acE@Base 3.2.4-0nkmi1~noble
 _ZN57_$LT$std..io..stdio..Stdout$u20$as$u20$std..io..Write$GT$9write_all17hf6b024df800bd531E@Base 3.2.4-0nkmi1~noble
 _ZN57_$LT$std..io..stdio..Stdout$u20$as$u20$std..io..Write$GT$9write_fmt17hc01446f7c1d64025E@Base 3.2.4-0nkmi1~noble
 _ZN57_$LT$std..path..Display$u20$as$u20$core..fmt..Display$GT$3fmt17h541199d8d49b566eE@Base 3.2.4-0nkmi1~noble
 _ZN57_$LT$std..process..Output$u20$as$u20$core..fmt..Debug$GT$3fmt17h28e49344ed350c01E@Base 3.2.4-0nkmi1~noble
 _ZN58_$LT$std..io..error..Error$u20$as$u20$core..fmt..Debug$GT$3fmt17hebacabf5f1cc8c68E@Base 3.2.4-0nkmi1~noble
 _ZN58_$LT$std..io..stdio..Stdin$u20$as$u20$core..fmt..Debug$GT$3fmt17h85b60d1bda8437d5E@Base 3.2.4-0nkmi1~noble
 _ZN58_$LT$std..io..stdio..StdinRaw$u20$as$u20$std..io..Read$GT$11read_to_end17h928fbc9d248b59a5E@Base 3.2.4-0nkmi1~noble
 _ZN58_$LT$std..io..stdio..StdinRaw$u20$as$u20$std..io..Read$GT$13read_vectored17h481a5e45d2d9429bE@Base 3.2.4-0nkmi1~noble
 _ZN58_$LT$std..io..stdio..StdinRaw$u20$as$u20$std..io..Read$GT$14read_to_string17h2a5ea600599aafc1E@Base 3.2.4-0nkmi1~noble
 _ZN58_$LT$std..io..stdio..StdinRaw$u20$as$u20$std..io..Read$GT$4read17h27cb7471c03e1db0E@Base 3.2.4-0nkmi1~noble
 _ZN58_$LT$std..io..stdio..StdinRaw$u20$as$u20$std..io..Read$GT$8read_buf17hfbc4365dc2edd5c4E@Base 3.2.4-0nkmi1~noble
 _ZN58_$LT$std..io..util..Repeat$u20$as$u20$core..fmt..Debug$GT$3fmt17h8ab30e53cfb2c6e4E@Base 3.2.4-0nkmi1~noble
 _ZN58_$LT$std..net..tcp..TcpStream$u20$as$u20$std..io..Read$GT$13read_vectored17he45a1c9c4da20f63E@Base 3.2.4-0nkmi1~noble
 _ZN58_$LT$std..net..tcp..TcpStream$u20$as$u20$std..io..Read$GT$4read17h22f094ae3f5ff957E@Base 3.2.4-0nkmi1~noble
 _ZN58_$LT$std..net..tcp..TcpStream$u20$as$u20$std..io..Read$GT$8read_buf17hc98eb269898610ddE@Base 3.2.4-0nkmi1~noble
 _ZN58_$LT$std..path..Components$u20$as$u20$core..fmt..Debug$GT$3fmt17h509cba7d6fc189eaE@Base 3.2.4-0nkmi1~noble
 _ZN58_$LT$std..process..Command$u20$as$u20$core..fmt..Debug$GT$3fmt17he38528e5e38017fcE@Base 3.2.4-0nkmi1~noble
 _ZN58_$LT$std..sync..once..Once$u20$as$u20$core..fmt..Debug$GT$3fmt17he6de06f89324bc61E@Base 3.2.4-0nkmi1~noble
 _ZN58_$LT$std..time..SystemTime$u20$as$u20$core..fmt..Debug$GT$3fmt17h68c17791d03aa622E@Base 3.2.4-0nkmi1~noble
 _ZN59_$LT$core..ffi..c_str..CStr$u20$as$u20$core..fmt..Debug$GT$3fmt17hc2eebbeb99565c37E@Base 3.2.4-0nkmi1~noble
 _ZN59_$LT$core..fmt..Arguments$u20$as$u20$core..fmt..Display$GT$3fmt17ha678d8d2fa7612a4E@Base 3.2.4-0nkmi1~noble
 _ZN59_$LT$core..str..iter..Chars$u20$as$u20$core..fmt..Debug$GT$3fmt17hd092c32ee2632bf6E@Base 3.2.4-0nkmi1~noble
 _ZN59_$LT$dyn$u20$core..any..Any$u20$as$u20$core..fmt..Debug$GT$3fmt17h937423bb210f4d20E@Base 3.2.4-0nkmi1~noble
 _ZN59_$LT$f32$u20$as$u20$core..num..dec2flt..float..RawFloat$GT$15pow10_fast_path17h6b3d29de47764425E@Base 3.2.4-0nkmi1~noble
 _ZN59_$LT$f32$u20$as$u20$core..num..dec2flt..float..RawFloat$GT$8classify17h0f9613b4a507736bE@Base 3.2.4-0nkmi1~noble
 _ZN59_$LT$f64$u20$as$u20$core..num..dec2flt..float..RawFloat$GT$15pow10_fast_path17hd2604f31504355b6E@Base 3.2.4-0nkmi1~noble
 _ZN59_$LT$std..io..stdio..Stderr$u20$as$u20$core..fmt..Debug$GT$3fmt17h94475430a657351dE@Base 3.2.4-0nkmi1~noble
 _ZN59_$LT$std..io..stdio..StdinLock$u20$as$u20$std..io..Read$GT$10read_exact17he4e95f649f55390aE@Base 3.2.4-0nkmi1~noble
 _ZN59_$LT$std..io..stdio..StdinLock$u20$as$u20$std..io..Read$GT$11read_to_end17ha5f05091f31b47ecE@Base 3.2.4-0nkmi1~noble
 _ZN59_$LT$std..io..stdio..StdinLock$u20$as$u20$std..io..Read$GT$13read_vectored17he84fe9dd7a480fd5E@Base 3.2.4-0nkmi1~noble
 _ZN59_$LT$std..io..stdio..StdinLock$u20$as$u20$std..io..Read$GT$14read_to_string17hd4810f178fe6609aE@Base 3.2.4-0nkmi1~noble
 _ZN59_$LT$std..io..stdio..StdinLock$u20$as$u20$std..io..Read$GT$4read17h357e3523da70469eE@Base 3.2.4-0nkmi1~noble
 _ZN59_$LT$std..io..stdio..StdinLock$u20$as$u20$std..io..Read$GT$8read_buf17he9ca8999aa72387dE@Base 3.2.4-0nkmi1~noble
 _ZN59_$LT$std..io..stdio..Stdout$u20$as$u20$core..fmt..Debug$GT$3fmt17h42c3f72fa22327f0E@Base 3.2.4-0nkmi1~noble
 _ZN59_$LT$std..net..tcp..TcpStream$u20$as$u20$std..io..Write$GT$14write_vectored17hb5e4814d22cf3ad0E@Base 3.2.4-0nkmi1~noble
 _ZN59_$LT$std..net..tcp..TcpStream$u20$as$u20$std..io..Write$GT$5write17h4eb58d8c486bce55E@Base 3.2.4-0nkmi1~noble
 _ZN59_$LT$std..process..ChildStderr$u20$as$u20$std..io..Read$GT$13read_vectored17h5cbf61d5cad23838E@Base 3.2.4-0nkmi1~noble
 _ZN59_$LT$std..process..ChildStderr$u20$as$u20$std..io..Read$GT$4read17h71466ce261f39799E@Base 3.2.4-0nkmi1~noble
 _ZN59_$LT$std..process..ChildStderr$u20$as$u20$std..io..Read$GT$8read_buf17ha355a09cb00deadeE@Base 3.2.4-0nkmi1~noble
 _ZN59_$LT$std..process..ChildStdin$u20$as$u20$std..io..Write$GT$14write_vectored17h9cd330a0c6fdb126E@Base 3.2.4-0nkmi1~noble
 _ZN59_$LT$std..process..ChildStdin$u20$as$u20$std..io..Write$GT$5write17h5293f78ddbb80111E@Base 3.2.4-0nkmi1~noble
 _ZN59_$LT$std..process..ChildStdout$u20$as$u20$std..io..Read$GT$11read_to_end17h045861ae8abd8145E@Base 3.2.4-0nkmi1~noble
 _ZN59_$LT$std..process..ChildStdout$u20$as$u20$std..io..Read$GT$13read_vectored17hf30ddf5703640966E@Base 3.2.4-0nkmi1~noble
 _ZN59_$LT$std..process..ChildStdout$u20$as$u20$std..io..Read$GT$4read17he790bbfded269511E@Base 3.2.4-0nkmi1~noble
 _ZN59_$LT$std..process..ChildStdout$u20$as$u20$std..io..Read$GT$8read_buf17h0997f2be513c04bfE@Base 3.2.4-0nkmi1~noble
 _ZN5adler13adler32_slice17hff411fc2847e47fdE@Base 3.2.4-0nkmi1~noble
 _ZN5adler7Adler3211write_slice17hd7c3e659c838681dE@Base 3.2.4-0nkmi1~noble
 _ZN5alloc2rc29rcbox_layout_for_value_layout17h8794df2a8cc72627E@Base 3.2.4-0nkmi1~noble
 _ZN5alloc3ffi5c_str100_$LT$impl$u20$core..default..Default$u20$for$u20$alloc..boxed..Box$LT$core..ffi..c_str..CStr$GT$$GT$7default17hde355089f6ee7e5dE@Base 3.2.4-0nkmi1~noble
 _ZN5alloc3ffi5c_str131_$LT$impl$u20$core..convert..From$LT$$RF$core..ffi..c_str..CStr$GT$$u20$for$u20$alloc..boxed..Box$LT$core..ffi..c_str..CStr$GT$$GT$4from17h5506983104fd16c5E@Base 3.2.4-0nkmi1~noble
 _ZN5alloc3ffi5c_str19FromVecWithNulError8as_bytes17h680970e42c6dfc0aE@Base 3.2.4-0nkmi1~noble
 _ZN5alloc3ffi5c_str40_$LT$impl$u20$core..ffi..c_str..CStr$GT$15to_string_lossy17hfcc5029d546ddaadE@Base 3.2.4-0nkmi1~noble
 _ZN5alloc3ffi5c_str75_$LT$impl$u20$alloc..borrow..ToOwned$u20$for$u20$core..ffi..c_str..CStr$GT$10clone_into17hbc6d47e73283f1d1E@Base 3.2.4-0nkmi1~noble
 _ZN5alloc3ffi5c_str75_$LT$impl$u20$alloc..borrow..ToOwned$u20$for$u20$core..ffi..c_str..CStr$GT$8to_owned17h535ed4dc90d4bd27E@Base 3.2.4-0nkmi1~noble
 _ZN5alloc3ffi5c_str7CString10into_bytes17h417508c515a8be3aE@Base 3.2.4-0nkmi1~noble
 _ZN5alloc3ffi5c_str7CString11into_string17h3f97862d97438a8cE@Base 3.2.4-0nkmi1~noble
 _ZN5alloc3ffi5c_str7CString17from_vec_with_nul17hc81f98b520f825d4E@Base 3.2.4-0nkmi1~noble
 _ZN5alloc3ffi5c_str7CString18from_vec_unchecked17hb431b51710bf4e26E@Base 3.2.4-0nkmi1~noble
 _ZN5alloc3ffi5c_str7CString19_from_vec_unchecked17h0bea93d4bd7015b5E@Base 3.2.4-0nkmi1~noble
 _ZN5alloc3ffi5c_str7CString27from_vec_with_nul_unchecked17h0679ba77969ec784E@Base 3.2.4-0nkmi1~noble
 _ZN5alloc3ffi5c_str7CString8from_raw17hdb998b02c38ca261E@Base 3.2.4-0nkmi1~noble
 _ZN5alloc3fmt6format12format_inner17h3550eca8da69eba6E@Base 3.2.4-0nkmi1~noble
 _ZN5alloc3vec16Vec$LT$T$C$A$GT$11swap_remove13assert_failed17h9bf5558a894ac3c0E@Base 3.2.4-0nkmi1~noble
 _ZN5alloc3vec16Vec$LT$T$C$A$GT$6insert13assert_failed17h730797cfeea47dd4E@Base 3.2.4-0nkmi1~noble
 _ZN5alloc3vec16Vec$LT$T$C$A$GT$6remove13assert_failed17he5813e3a1c7a8cb5E@Base 3.2.4-0nkmi1~noble
 _ZN5alloc3vec16Vec$LT$T$C$A$GT$9split_off13assert_failed17h4a6f493b00e1f42dE@Base 3.2.4-0nkmi1~noble
 _ZN5alloc4sync32arcinner_layout_for_value_layout17h006a8f634efdbf30E@Base 3.2.4-0nkmi1~noble
 _ZN5alloc5alloc18handle_alloc_error17h36e33f5f4c713b43E@Base 3.2.4-0nkmi1~noble
 _ZN5alloc5alloc18handle_alloc_error8ct_error17hff11db1201c9e9deE@Base 3.2.4-0nkmi1~noble
 _ZN5alloc6string107_$LT$impl$u20$core..convert..From$LT$alloc..string..String$GT$$u20$for$u20$alloc..boxed..Box$LT$str$GT$$GT$4from17h8e7b1862a6f92c47E@Base 3.2.4-0nkmi1~noble
 _ZN5alloc6string13FromUtf8Error8as_bytes17haaa1a3da60dd9f58E@Base 3.2.4-0nkmi1~noble
 _ZN5alloc6string5Drain6as_str17hc02f0c0ea1f9c540E@Base 3.2.4-0nkmi1~noble
 _ZN5alloc6string6String10from_utf1617h7db83c47a14eaa9cE@Base 3.2.4-0nkmi1~noble
 _ZN5alloc6string6String11try_reserve17hb667cfaedbece1ebE@Base 3.2.4-0nkmi1~noble
 _ZN5alloc6string6String12from_utf16be17h2a3e14db113390b5E@Base 3.2.4-0nkmi1~noble
 _ZN5alloc6string6String12from_utf16le17h70c2e43457f9bbcbE@Base 3.2.4-0nkmi1~noble
 _ZN5alloc6string6String12insert_bytes17hbde469da8f70a4abE@Base 3.2.4-0nkmi1~noble
 _ZN5alloc6string6String14into_raw_parts17hd9a097f229deb6eeE@Base 3.2.4-0nkmi1~noble
 _ZN5alloc6string6String15from_utf8_lossy17h7d0e966e1cf9f3fcE@Base 3.2.4-0nkmi1~noble
 _ZN5alloc6string6String17try_reserve_exact17h280795fdd5a44926E@Base 3.2.4-0nkmi1~noble
 _ZN5alloc6string6String18from_utf16be_lossy17h3129dace2c6bf70fE@Base 3.2.4-0nkmi1~noble
 _ZN5alloc6string6String18from_utf16le_lossy17h2ecb6ade32f3ece0E@Base 3.2.4-0nkmi1~noble
 _ZN5alloc7raw_vec17capacity_overflow17h07f8531201215201E@Base 3.2.4-0nkmi1~noble
 _ZN5gimli4read5Error11description17hd8dbea6904b5233cE@Base 3.2.4-0nkmi1~noble
 _ZN5gimli4read6abbrev10Attributes4push17hfb7e10a7b2d7a69dE@Base 3.2.4-0nkmi1~noble
 _ZN5gimli4read6abbrev12Abbreviation3new17h03523c3a44e0be1eE@Base 3.2.4-0nkmi1~noble
 _ZN5gimli4read6abbrev13Abbreviations6insert17h893e6c2de20822bdE@Base 3.2.4-0nkmi1~noble
 _ZN60_$LT$alloc..string..String$u20$as$u20$core..clone..Clone$GT$10clone_from17h112e351423f6b6eeE@Base 3.2.4-0nkmi1~noble
 _ZN60_$LT$alloc..string..String$u20$as$u20$core..clone..Clone$GT$5clone17hf22a63d4e1ca0d4fE@Base 3.2.4-0nkmi1~noble
 _ZN60_$LT$core..cell..BorrowError$u20$as$u20$core..fmt..Debug$GT$3fmt17h3812334e8842477aE@Base 3.2.4-0nkmi1~noble
 _ZN60_$LT$core..str..lossy..Debug$u20$as$u20$core..fmt..Debug$GT$3fmt17h191299a5a690dfc1E@Base 3.2.4-0nkmi1~noble
 _ZN60_$LT$core..task..wake..Waker$u20$as$u20$core..fmt..Debug$GT$3fmt17h33f7c9c157d48fd5E@Base 3.2.4-0nkmi1~noble
 _ZN60_$LT$std..ffi..os_str..OsStr$u20$as$u20$core..fmt..Debug$GT$3fmt17h82b3aeca6be08ee2E@Base 3.2.4-0nkmi1~noble
 _ZN60_$LT$std..fs..File$u20$as$u20$std..os..unix..fs..FileExt$GT$16read_vectored_at17hf95c245f691175ffE@Base 3.2.4-0nkmi1~noble
 _ZN60_$LT$std..fs..File$u20$as$u20$std..os..unix..fs..FileExt$GT$17write_vectored_at17ha36a39562b3a2808E@Base 3.2.4-0nkmi1~noble
 _ZN60_$LT$std..fs..File$u20$as$u20$std..os..unix..fs..FileExt$GT$7read_at17h0a2fc6fa8f699754E@Base 3.2.4-0nkmi1~noble
 _ZN60_$LT$std..fs..File$u20$as$u20$std..os..unix..fs..FileExt$GT$8write_at17h190f0730b6ab107aE@Base 3.2.4-0nkmi1~noble
 _ZN60_$LT$std..io..error..Error$u20$as$u20$core..error..Error$GT$11description17hdda0a82ea7107633E@Base 3.2.4-0nkmi1~noble
 _ZN60_$LT$std..io..error..Error$u20$as$u20$core..error..Error$GT$5cause17h3b08a57ea5c5b5baE@Base 3.2.4-0nkmi1~noble
 _ZN60_$LT$std..io..error..Error$u20$as$u20$core..error..Error$GT$6source17h14806552db73f33dE@Base 3.2.4-0nkmi1~noble
 _ZN60_$LT$std..io..error..Error$u20$as$u20$core..fmt..Display$GT$3fmt17h083cd7fe8c151b95E@Base 3.2.4-0nkmi1~noble
 _ZN60_$LT$std..io..stdio..StderrRaw$u20$as$u20$std..io..Write$GT$14write_vectored17hd1d4c3b325324acdE@Base 3.2.4-0nkmi1~noble
 _ZN60_$LT$std..io..stdio..StderrRaw$u20$as$u20$std..io..Write$GT$18write_all_vectored17hfb3258cafee6b6d2E@Base 3.2.4-0nkmi1~noble
 _ZN60_$LT$std..io..stdio..StderrRaw$u20$as$u20$std..io..Write$GT$5flush17hb9ecb87852129526E@Base 3.2.4-0nkmi1~noble
 _ZN60_$LT$std..io..stdio..StderrRaw$u20$as$u20$std..io..Write$GT$5write17hddc3320e9b5945f3E@Base 3.2.4-0nkmi1~noble
 _ZN60_$LT$std..io..stdio..StderrRaw$u20$as$u20$std..io..Write$GT$9write_all17had86d7b61fbe9192E@Base 3.2.4-0nkmi1~noble
 _ZN60_$LT$std..io..stdio..StderrRaw$u20$as$u20$std..io..Write$GT$9write_fmt17h1b4925366396d7d7E@Base 3.2.4-0nkmi1~noble
 _ZN60_$LT$std..io..stdio..StdoutRaw$u20$as$u20$std..io..Write$GT$14write_vectored17h1e6b31beec3a4273E@Base 3.2.4-0nkmi1~noble
 _ZN60_$LT$std..io..stdio..StdoutRaw$u20$as$u20$std..io..Write$GT$18write_all_vectored17h35fd9de7b782c9c1E@Base 3.2.4-0nkmi1~noble
 _ZN60_$LT$std..io..stdio..StdoutRaw$u20$as$u20$std..io..Write$GT$5flush17h9422ed59f8d054beE@Base 3.2.4-0nkmi1~noble
 _ZN60_$LT$std..io..stdio..StdoutRaw$u20$as$u20$std..io..Write$GT$5write17h314d59674b52f9acE@Base 3.2.4-0nkmi1~noble
 _ZN60_$LT$std..io..stdio..StdoutRaw$u20$as$u20$std..io..Write$GT$9write_all17ha4d458b9a5385038E@Base 3.2.4-0nkmi1~noble
 _ZN60_$LT$std..io..stdio..StdoutRaw$u20$as$u20$std..io..Write$GT$9write_fmt17h8c862adf2de214adE@Base 3.2.4-0nkmi1~noble
 _ZN60_$LT$std..sys..unix..os..Env$u20$as$u20$core..fmt..Debug$GT$3fmt17h63bdebf63939d118E@Base 3.2.4-0nkmi1~noble
 _ZN60_$LT$std..time..Instant$u20$as$u20$core..ops..arith..Sub$GT$3sub17hbb9063efdbac30cdE@Base 3.2.4-0nkmi1~noble
 _ZN60_$LT$str$u20$as$u20$std..net..socket_addr..ToSocketAddrs$GT$15to_socket_addrs17h872fa94a8166f050E@Base 3.2.4-0nkmi1~noble
 _ZN61_$LT$$RF$std..io..stdio..Stderr$u20$as$u20$std..io..Write$GT$14write_vectored17h41cb106e89977974E@Base 3.2.4-0nkmi1~noble
 _ZN61_$LT$$RF$std..io..stdio..Stderr$u20$as$u20$std..io..Write$GT$18write_all_vectored17hed5bc7a59e143487E@Base 3.2.4-0nkmi1~noble
 _ZN61_$LT$$RF$std..io..stdio..Stderr$u20$as$u20$std..io..Write$GT$5flush17hfd71f8beec1475f7E@Base 3.2.4-0nkmi1~noble
 _ZN61_$LT$$RF$std..io..stdio..Stderr$u20$as$u20$std..io..Write$GT$5write17h826f63e701e831d7E@Base 3.2.4-0nkmi1~noble
 _ZN61_$LT$$RF$std..io..stdio..Stderr$u20$as$u20$std..io..Write$GT$9write_all17hd866ae210de93558E@Base 3.2.4-0nkmi1~noble
 _ZN61_$LT$$RF$std..io..stdio..Stderr$u20$as$u20$std..io..Write$GT$9write_fmt17hefd56906d31441e3E@Base 3.2.4-0nkmi1~noble
 _ZN61_$LT$$RF$std..io..stdio..Stdout$u20$as$u20$std..io..Write$GT$14write_vectored17ha555d93e62bfc84cE@Base 3.2.4-0nkmi1~noble
 _ZN61_$LT$$RF$std..io..stdio..Stdout$u20$as$u20$std..io..Write$GT$18write_all_vectored17h7d493125c2f61b25E@Base 3.2.4-0nkmi1~noble
 _ZN61_$LT$$RF$std..io..stdio..Stdout$u20$as$u20$std..io..Write$GT$5flush17hbcb7e7b2e7941fc5E@Base 3.2.4-0nkmi1~noble
 _ZN61_$LT$$RF$std..io..stdio..Stdout$u20$as$u20$std..io..Write$GT$5write17h1565f7dbdee47d44E@Base 3.2.4-0nkmi1~noble
 _ZN61_$LT$$RF$std..io..stdio..Stdout$u20$as$u20$std..io..Write$GT$9write_all17h66acbd72adb81cbcE@Base 3.2.4-0nkmi1~noble
 _ZN61_$LT$$RF$std..io..stdio..Stdout$u20$as$u20$std..io..Write$GT$9write_fmt17hcdf9cc0e921703e8E@Base 3.2.4-0nkmi1~noble
 _ZN61_$LT$rustc_demangle..Demangle$u20$as$u20$core..fmt..Debug$GT$3fmt17h42360f19339e6900E@Base 3.2.4-0nkmi1~noble
 _ZN61_$LT$std..io..stdio..StderrLock$u20$as$u20$std..io..Write$GT$14write_vectored17h516e0e0072796b06E@Base 3.2.4-0nkmi1~noble
 _ZN61_$LT$std..io..stdio..StderrLock$u20$as$u20$std..io..Write$GT$18write_all_vectored17h88a8747e9281586cE@Base 3.2.4-0nkmi1~noble
 _ZN61_$LT$std..io..stdio..StderrLock$u20$as$u20$std..io..Write$GT$5flush17h1a4479c75e30be30E@Base 3.2.4-0nkmi1~noble
 _ZN61_$LT$std..io..stdio..StderrLock$u20$as$u20$std..io..Write$GT$5write17he70f0da41959fb89E@Base 3.2.4-0nkmi1~noble
 _ZN61_$LT$std..io..stdio..StderrLock$u20$as$u20$std..io..Write$GT$9write_all17hd1d8845f074018a5E@Base 3.2.4-0nkmi1~noble
 _ZN61_$LT$std..io..stdio..StdoutLock$u20$as$u20$std..io..Write$GT$14write_vectored17h9027faf0d88a1484E@Base 3.2.4-0nkmi1~noble
 _ZN61_$LT$std..io..stdio..StdoutLock$u20$as$u20$std..io..Write$GT$18write_all_vectored17h7291f0c7d86dce8bE@Base 3.2.4-0nkmi1~noble
 _ZN61_$LT$std..io..stdio..StdoutLock$u20$as$u20$std..io..Write$GT$5flush17h2526ba868cf97239E@Base 3.2.4-0nkmi1~noble
 _ZN61_$LT$std..io..stdio..StdoutLock$u20$as$u20$std..io..Write$GT$5write17hdb1423469d850830E@Base 3.2.4-0nkmi1~noble
 _ZN61_$LT$std..io..stdio..StdoutLock$u20$as$u20$std..io..Write$GT$9write_all17h048e466261753d08E@Base 3.2.4-0nkmi1~noble
 _ZN61_$LT$std..net..tcp..TcpStream$u20$as$u20$core..fmt..Debug$GT$3fmt17h9fa214950d7a6b37E@Base 3.2.4-0nkmi1~noble
 _ZN61_$LT$std..net..udp..UdpSocket$u20$as$u20$core..fmt..Debug$GT$3fmt17hfdd8d8df44544253E@Base 3.2.4-0nkmi1~noble
 _ZN61_$LT$std..process..ChildStdin$u20$as$u20$core..fmt..Debug$GT$3fmt17hb680197ffb31df08E@Base 3.2.4-0nkmi1~noble
 _ZN61_$LT$std..sys..unix..fs..File$u20$as$u20$core..fmt..Debug$GT$3fmt17he6255d8a86ed5340E@Base 3.2.4-0nkmi1~noble
 _ZN62_$LT$$RF$std..net..tcp..TcpStream$u20$as$u20$std..io..Read$GT$13read_vectored17h7d7ca79cbd108d82E@Base 3.2.4-0nkmi1~noble
 _ZN62_$LT$$RF$std..net..tcp..TcpStream$u20$as$u20$std..io..Read$GT$4read17h903f60831ddc0bf0E@Base 3.2.4-0nkmi1~noble
 _ZN62_$LT$$RF$std..net..tcp..TcpStream$u20$as$u20$std..io..Read$GT$8read_buf17h70c1361c52b74cacE@Base 3.2.4-0nkmi1~noble
 _ZN62_$LT$alloc..string..Drain$u20$as$u20$core..ops..drop..Drop$GT$4drop17h16a2256560e4f2a9E@Base 3.2.4-0nkmi1~noble
 _ZN62_$LT$core..alloc..AllocError$u20$as$u20$core..fmt..Display$GT$3fmt17h649b3f96e07ec6b9E@Base 3.2.4-0nkmi1~noble
 _ZN62_$LT$core..cell..BorrowError$u20$as$u20$core..fmt..Display$GT$3fmt17hbe9b7eb7c9ce56aaE@Base 3.2.4-0nkmi1~noble
 _ZN62_$LT$core..char..EscapeDebug$u20$as$u20$core..fmt..Display$GT$3fmt17h5a2bd119d8744ff3E@Base 3.2.4-0nkmi1~noble
 _ZN62_$LT$core..char..ToLowercase$u20$as$u20$core..fmt..Display$GT$3fmt17h64a7233b435575caE@Base 3.2.4-0nkmi1~noble
 _ZN62_$LT$core..char..ToUppercase$u20$as$u20$core..fmt..Display$GT$3fmt17h93529b7570702316E@Base 3.2.4-0nkmi1~noble
 _ZN62_$LT$core..num..bignum..Big32x40$u20$as$u20$core..cmp..Ord$GT$3cmp17h1e9620430f6b1ceaE@Base 3.2.4-0nkmi1~noble
 _ZN62_$LT$core..task..wake..Context$u20$as$u20$core..fmt..Debug$GT$3fmt17h6fe022441f211e07E@Base 3.2.4-0nkmi1~noble
 _ZN62_$LT$std..backtrace..Backtrace$u20$as$u20$core..fmt..Debug$GT$3fmt17h67db495a08b39913E@Base 3.2.4-0nkmi1~noble
 _ZN62_$LT$std..io..stdio..StdinLock$u20$as$u20$core..fmt..Debug$GT$3fmt17ha4394b6ff15113c8E@Base 3.2.4-0nkmi1~noble
 _ZN62_$LT$std..io..stdio..StdinLock$u20$as$u20$std..io..BufRead$GT$10read_until17hf7a58424eeb6be58E@Base 3.2.4-0nkmi1~noble
 _ZN62_$LT$std..io..stdio..StdinLock$u20$as$u20$std..io..BufRead$GT$7consume17hdb783c34b15aef0bE@Base 3.2.4-0nkmi1~noble
 _ZN62_$LT$std..io..stdio..StdinLock$u20$as$u20$std..io..BufRead$GT$8fill_buf17h4fc2fefb2a797e70E@Base 3.2.4-0nkmi1~noble
 _ZN62_$LT$std..io..stdio..StdinLock$u20$as$u20$std..io..BufRead$GT$9read_line17h0cd31f9ce1919cc2E@Base 3.2.4-0nkmi1~noble
 _ZN62_$LT$std..process..ChildStderr$u20$as$u20$core..fmt..Debug$GT$3fmt17hac082a47e037dcb2E@Base 3.2.4-0nkmi1~noble
 _ZN62_$LT$std..process..ChildStdout$u20$as$u20$core..fmt..Debug$GT$3fmt17h457aaced0e916feeE@Base 3.2.4-0nkmi1~noble
 _ZN62_$LT$std..sys..unix..stdio..Stdin$u20$as$u20$std..io..Read$GT$13read_vectored17h5254364091585903E@Base 3.2.4-0nkmi1~noble
 _ZN62_$LT$std..sys..unix..stdio..Stdin$u20$as$u20$std..io..Read$GT$4read17h1fa1fc266728b92cE@Base 3.2.4-0nkmi1~noble
 _ZN62_$LT$std..sys..unix..stdio..Stdin$u20$as$u20$std..io..Read$GT$8read_buf17hceb4d2b524bc98eaE@Base 3.2.4-0nkmi1~noble
 _ZN63_$LT$$RF$std..net..tcp..TcpStream$u20$as$u20$std..io..Write$GT$14write_vectored17h5927f16cb1c67676E@Base 3.2.4-0nkmi1~noble
 _ZN63_$LT$$RF$std..net..tcp..TcpStream$u20$as$u20$std..io..Write$GT$5write17h0b798f62c50eb5c1E@Base 3.2.4-0nkmi1~noble
 _ZN63_$LT$$RF$std..process..ChildStdin$u20$as$u20$std..io..Write$GT$14write_vectored17h3f3dd1ba23288787E@Base 3.2.4-0nkmi1~noble
 _ZN63_$LT$$RF$std..process..ChildStdin$u20$as$u20$std..io..Write$GT$5write17h4fa29ede94f5e258E@Base 3.2.4-0nkmi1~noble
 _ZN63_$LT$alloc..ffi..c_str..CString$u20$as$u20$core..fmt..Debug$GT$3fmt17h38037a34a258e1f2E@Base 3.2.4-0nkmi1~noble
 _ZN63_$LT$core..ascii..EscapeDefault$u20$as$u20$core..fmt..Debug$GT$3fmt17hb31a29df50238afcE@Base 3.2.4-0nkmi1~noble
 _ZN63_$LT$core..cell..BorrowMutError$u20$as$u20$core..fmt..Debug$GT$3fmt17h0c2ff573fd168d54E@Base 3.2.4-0nkmi1~noble
 _ZN63_$LT$core..net..ip_addr..IpAddr$u20$as$u20$core..fmt..Debug$GT$3fmt17hea9151400d7cf326E@Base 3.2.4-0nkmi1~noble
 _ZN63_$LT$rustc_demangle..Demangle$u20$as$u20$core..fmt..Display$GT$3fmt17h4ceaf1be7433ee22E@Base 3.2.4-0nkmi1~noble
 _ZN63_$LT$std..env..JoinPathsError$u20$as$u20$core..fmt..Display$GT$3fmt17h7480408a8fb46302E@Base 3.2.4-0nkmi1~noble
 _ZN63_$LT$std..ffi..os_str..OsString$u20$as$u20$core..fmt..Debug$GT$3fmt17h67aeaf57b140d432E@Base 3.2.4-0nkmi1~noble
 _ZN63_$LT$std..ffi..os_str..OsString$u20$as$u20$core..fmt..Write$GT$9write_str17haf067cd128aeb964E@Base 3.2.4-0nkmi1~noble
 _ZN63_$LT$std..io..stdio..StderrLock$u20$as$u20$core..fmt..Debug$GT$3fmt17h55f493ba21376158E@Base 3.2.4-0nkmi1~noble
 _ZN63_$LT$std..io..stdio..StdoutLock$u20$as$u20$core..fmt..Debug$GT$3fmt17h7f52b4dea9fe1ddbE@Base 3.2.4-0nkmi1~noble
 _ZN63_$LT$std..net..tcp..TcpListener$u20$as$u20$core..fmt..Debug$GT$3fmt17h306027cbeb2d190cE@Base 3.2.4-0nkmi1~noble
 _ZN63_$LT$std..process..ExitStatus$u20$as$u20$core..fmt..Display$GT$3fmt17hddc7391ef14038f6E@Base 3.2.4-0nkmi1~noble
 _ZN63_$LT$std..sync..once..OnceState$u20$as$u20$core..fmt..Debug$GT$3fmt17hbe5fc05347b3aaedE@Base 3.2.4-0nkmi1~noble
 _ZN63_$LT$std..sys..unix..args..Args$u20$as$u20$core..fmt..Debug$GT$3fmt17h55e409b2e3d79ff3E@Base 3.2.4-0nkmi1~noble
 _ZN63_$LT$std..thread..scoped..Scope$u20$as$u20$core..fmt..Debug$GT$3fmt17h7451d891c438adf7E@Base 3.2.4-0nkmi1~noble
 _ZN64_$LT$core..char..EscapeDefault$u20$as$u20$core..fmt..Display$GT$3fmt17h47f8bfcbbc154844E@Base 3.2.4-0nkmi1~noble
 _ZN64_$LT$core..char..EscapeUnicode$u20$as$u20$core..fmt..Display$GT$3fmt17h45bf2d22f67736e7E@Base 3.2.4-0nkmi1~noble
 _ZN64_$LT$core..num..bignum..Big32x40$u20$as$u20$core..fmt..Debug$GT$3fmt17h3806b89b457a7a9bE@Base 3.2.4-0nkmi1~noble
 _ZN64_$LT$core..ops..range..RangeFull$u20$as$u20$core..fmt..Debug$GT$3fmt17hc7faed4bfb47f0c5E@Base 3.2.4-0nkmi1~noble
 _ZN64_$LT$rustc_demangle..v0..Ident$u20$as$u20$core..fmt..Display$GT$3fmt17h5f8feffce0580aafE@Base 3.2.4-0nkmi1~noble
 _ZN64_$LT$std..backtrace..Backtrace$u20$as$u20$core..fmt..Display$GT$3fmt17h5fa7cc332743e991E@Base 3.2.4-0nkmi1~noble
 _ZN64_$LT$std..backtrace..BytesOrWide$u20$as$u20$core..fmt..Debug$GT$3fmt17h1b8c1b0eed9e8b77E@Base 3.2.4-0nkmi1~noble
 _ZN64_$LT$std..io..error..ErrorKind$u20$as$u20$core..fmt..Display$GT$3fmt17ha32c8162052a7fb5E@Base 3.2.4-0nkmi1~noble
 _ZN64_$LT$std..os..fd..owned..OwnedFd$u20$as$u20$core..fmt..Debug$GT$3fmt17he9baff41ec54203bE@Base 3.2.4-0nkmi1~noble
 _ZN64_$LT$std..sync..barrier..Barrier$u20$as$u20$core..fmt..Debug$GT$3fmt17h61e5df7b47dcb79aE@Base 3.2.4-0nkmi1~noble
 _ZN64_$LT$std..sync..condvar..Condvar$u20$as$u20$core..fmt..Debug$GT$3fmt17h5e8ae941a2672320E@Base 3.2.4-0nkmi1~noble
 _ZN64_$LT$std..sys..unix..fs..ReadDir$u20$as$u20$core..fmt..Debug$GT$3fmt17ha09e22df2397b014E@Base 3.2.4-0nkmi1~noble
 _ZN64_$LT$std..sys..unix..os_str..Buf$u20$as$u20$core..fmt..Debug$GT$3fmt17h97562bc8a89b41f3E@Base 3.2.4-0nkmi1~noble
 _ZN64_$LT$std..sys..unix..stdio..Stderr$u20$as$u20$std..io..Write$GT$14write_vectored17hf251b7bc31dbc944E@Base 3.2.4-0nkmi1~noble
 _ZN64_$LT$std..sys..unix..stdio..Stderr$u20$as$u20$std..io..Write$GT$5write17hc960ce9050c0181dE@Base 3.2.4-0nkmi1~noble
 _ZN64_$LT$std..sys..unix..stdio..Stdout$u20$as$u20$std..io..Write$GT$14write_vectored17hd13f10925c9f4ed6E@Base 3.2.4-0nkmi1~noble
 _ZN64_$LT$std..sys..unix..stdio..Stdout$u20$as$u20$std..io..Write$GT$5write17h31ea5a71718af6abE@Base 3.2.4-0nkmi1~noble
 _ZN64_$LT$std..sys_common..wtf8..Wtf8$u20$as$u20$core..fmt..Debug$GT$3fmt17hca6f0fa6964e4a6dE@Base 3.2.4-0nkmi1~noble
 _ZN65_$LT$core..ascii..EscapeDefault$u20$as$u20$core..fmt..Display$GT$3fmt17h48491abffe13f816E@Base 3.2.4-0nkmi1~noble
 _ZN65_$LT$core..cell..BorrowMutError$u20$as$u20$core..fmt..Display$GT$3fmt17h9f347827f4ada42dE@Base 3.2.4-0nkmi1~noble
 _ZN65_$LT$core..net..ip_addr..IpAddr$u20$as$u20$core..fmt..Display$GT$3fmt17h50dcb24e6bc5e4bcE@Base 3.2.4-0nkmi1~noble
 _ZN65_$LT$core..net..ip_addr..Ipv4Addr$u20$as$u20$core..fmt..Debug$GT$3fmt17h3ff30eb698a6b4abE@Base 3.2.4-0nkmi1~noble
 _ZN65_$LT$core..net..ip_addr..Ipv6Addr$u20$as$u20$core..fmt..Debug$GT$3fmt17h446c6027e1b35514E@Base 3.2.4-0nkmi1~noble
 _ZN65_$LT$core..str..iter..EncodeUtf16$u20$as$u20$core..fmt..Debug$GT$3fmt17hfb59cb1f7d20b12cE@Base 3.2.4-0nkmi1~noble
 _ZN65_$LT$core..str..lossy..Utf8Chunks$u20$as$u20$core..fmt..Debug$GT$3fmt17h3cb2b7b0f1fccf1fE@Base 3.2.4-0nkmi1~noble
 _ZN65_$LT$core..sync..atomic..AtomicI8$u20$as$u20$core..fmt..Debug$GT$3fmt17h1a10812b5ac79c94E@Base 3.2.4-0nkmi1~noble
 _ZN65_$LT$core..sync..atomic..AtomicU8$u20$as$u20$core..fmt..Debug$GT$3fmt17h5d2a160d930746c0E@Base 3.2.4-0nkmi1~noble
 _ZN65_$LT$std..backtrace_rs..Bomb$u20$as$u20$core..ops..drop..Drop$GT$4drop17h60fd7868b3ea2929E@Base 3.2.4-0nkmi1~noble
 _ZN65_$LT$std..sync..mpsc..RecvError$u20$as$u20$core..fmt..Display$GT$3fmt17h13aabcda9a527c89E@Base 3.2.4-0nkmi1~noble
 _ZN65_$LT$std..sys..unix..fs..Dir$u20$as$u20$core..ops..drop..Drop$GT$4drop17h17243b616f96ebddE@Base 3.2.4-0nkmi1~noble
 _ZN65_$LT$std..thread..PanicGuard$u20$as$u20$core..ops..drop..Drop$GT$4drop17h1ccecc5ae349b386E@Base 3.2.4-0nkmi1~noble
 _ZN65_$LT$std..time..SystemTimeError$u20$as$u20$core..fmt..Display$GT$3fmt17hb5cd599372b9b459E@Base 3.2.4-0nkmi1~noble
 _ZN66_$LT$$RF$std..sys..unix..fd..FileDesc$u20$as$u20$std..io..Read$GT$13read_vectored17h61b287503fd266b4E@Base 3.2.4-0nkmi1~noble
 _ZN66_$LT$$RF$std..sys..unix..fd..FileDesc$u20$as$u20$std..io..Read$GT$4read17h48435c3c413f49ebE@Base 3.2.4-0nkmi1~noble
 _ZN66_$LT$$RF$std..sys..unix..fd..FileDesc$u20$as$u20$std..io..Read$GT$8read_buf17h6552f81a06348e5bE@Base 3.2.4-0nkmi1~noble
 _ZN66_$LT$adler..algo..U32X4$u20$as$u20$core..ops..arith..AddAssign$GT$10add_assign17h0ea7a043598855b3E@Base 3.2.4-0nkmi1~noble
 _ZN66_$LT$alloc..ffi..c_str..NulError$u20$as$u20$core..fmt..Display$GT$3fmt17h6e1996fc03fa8684E@Base 3.2.4-0nkmi1~noble
 _ZN66_$LT$core..char..CaseMappingIter$u20$as$u20$core..fmt..Display$GT$3fmt17hfb7bb26281c517a9E@Base 3.2.4-0nkmi1~noble
 _ZN66_$LT$core..str..error..Utf8Error$u20$as$u20$core..fmt..Display$GT$3fmt17h17e966828bd32667E@Base 3.2.4-0nkmi1~noble
 _ZN66_$LT$core..sync..atomic..AtomicI16$u20$as$u20$core..fmt..Debug$GT$3fmt17h0afce1bd61963901E@Base 3.2.4-0nkmi1~noble
 _ZN66_$LT$core..sync..atomic..AtomicI32$u20$as$u20$core..fmt..Debug$GT$3fmt17h2b73221b41053a9cE@Base 3.2.4-0nkmi1~noble
 _ZN66_$LT$core..sync..atomic..AtomicI64$u20$as$u20$core..fmt..Debug$GT$3fmt17ha6752d82dcf0e89dE@Base 3.2.4-0nkmi1~noble
 _ZN66_$LT$core..sync..atomic..AtomicU16$u20$as$u20$core..fmt..Debug$GT$3fmt17h282ed58e82ca2135E@Base 3.2.4-0nkmi1~noble
 _ZN66_$LT$core..sync..atomic..AtomicU32$u20$as$u20$core..fmt..Debug$GT$3fmt17hbe498fdc8874236dE@Base 3.2.4-0nkmi1~noble
 _ZN66_$LT$core..sync..atomic..AtomicU64$u20$as$u20$core..fmt..Debug$GT$3fmt17h9c40fc2f72325c13E@Base 3.2.4-0nkmi1~noble
 _ZN66_$LT$std..path..StripPrefixError$u20$as$u20$core..fmt..Display$GT$3fmt17h299db8188cf1b68aE@Base 3.2.4-0nkmi1~noble
 _ZN66_$LT$std..sys..unix..os_str..Buf$u20$as$u20$core..fmt..Display$GT$3fmt17h4af9cef9f0c57024E@Base 3.2.4-0nkmi1~noble
 _ZN66_$LT$std..sys..unix..os_str..Slice$u20$as$u20$core..fmt..Debug$GT$3fmt17h84776c13a45a8788E@Base 3.2.4-0nkmi1~noble
 _ZN66_$LT$std..sys..unix..time..Instant$u20$as$u20$core..fmt..Debug$GT$3fmt17h7a0a2783993a1980E@Base 3.2.4-0nkmi1~noble
 _ZN66_$LT$std..sys_common..wtf8..Wtf8$u20$as$u20$core..fmt..Display$GT$3fmt17h1d57ef0d0c35d6deE@Base 3.2.4-0nkmi1~noble
 _ZN67_$LT$alloc..boxed..Box$LT$str$GT$$u20$as$u20$core..clone..Clone$GT$5clone17hbba08fd4751cad2aE@Base 3.2.4-0nkmi1~noble
 _ZN67_$LT$alloc..string..FromUtf8Error$u20$as$u20$core..fmt..Display$GT$3fmt17hc7ae023ee194ea52E@Base 3.2.4-0nkmi1~noble
 _ZN67_$LT$core..char..TryFromCharError$u20$as$u20$core..fmt..Display$GT$3fmt17h5b63936f6d379ba7E@Base 3.2.4-0nkmi1~noble
 _ZN67_$LT$core..net..ip_addr..Ipv4Addr$u20$as$u20$core..fmt..Display$GT$3fmt17h66cfca1d4517b53bE@Base 3.2.4-0nkmi1~noble
 _ZN67_$LT$core..net..ip_addr..Ipv6Addr$u20$as$u20$core..fmt..Display$GT$3fmt17h7bcbde3f013e85b7E@Base 3.2.4-0nkmi1~noble
 _ZN67_$LT$core..num..bignum..tests..Big8x3$u20$as$u20$core..cmp..Ord$GT$3cmp17hd66c261fd257b4efE@Base 3.2.4-0nkmi1~noble
 _ZN67_$LT$core..str..iter..EscapeDebug$u20$as$u20$core..fmt..Display$GT$3fmt17h98a236149ed73f52E@Base 3.2.4-0nkmi1~noble
 _ZN67_$LT$core..sync..atomic..AtomicBool$u20$as$u20$core..fmt..Debug$GT$3fmt17h47b5d1914acf39c1E@Base 3.2.4-0nkmi1~noble
 _ZN67_$LT$rustc_demangle..v0..Demangle$u20$as$u20$core..fmt..Display$GT$3fmt17hed421b34345a736cE@Base 3.2.4-0nkmi1~noble
 _ZN67_$LT$std..backtrace..BacktraceFrame$u20$as$u20$core..fmt..Debug$GT$3fmt17h58d4d6761b86df78E@Base 3.2.4-0nkmi1~noble
 _ZN67_$LT$std..os..fd..owned..BorrowedFd$u20$as$u20$core..fmt..Debug$GT$3fmt17h7818062500add66bE@Base 3.2.4-0nkmi1~noble
 _ZN68_$LT$$RF$$u5b$u8$u5d$$u20$as$u20$object..read..read_ref..ReadRef$GT$13read_bytes_at17ha40cab3c8c36fb77E@Base 3.2.4-0nkmi1~noble
 _ZN68_$LT$$RF$$u5b$u8$u5d$$u20$as$u20$object..read..read_ref..ReadRef$GT$19read_bytes_at_until17h8e71bbc7d5b70fe8E@Base 3.2.4-0nkmi1~noble
 _ZN68_$LT$$RF$$u5b$u8$u5d$$u20$as$u20$object..read..read_ref..ReadRef$GT$3len17h9ca6ce35087ba3adE@Base 3.2.4-0nkmi1~noble
 _ZN68_$LT$alloc..string..FromUtf16Error$u20$as$u20$core..fmt..Display$GT$3fmt17h5a642893007a518eE@Base 3.2.4-0nkmi1~noble
 _ZN68_$LT$core..fmt..builders..PadAdapter$u20$as$u20$core..fmt..Write$GT$10write_char17h473d8b7c5a5ed4b4E@Base 3.2.4-0nkmi1~noble
 _ZN68_$LT$core..fmt..builders..PadAdapter$u20$as$u20$core..fmt..Write$GT$9write_str17h6076c91a9f48dadaE@Base 3.2.4-0nkmi1~noble
 _ZN68_$LT$core..num..bignum..Big32x40$u20$as$u20$core..cmp..PartialEq$GT$2eq17h06e9a38d93685479E@Base 3.2.4-0nkmi1~noble
 _ZN68_$LT$core..ptr..alignment..Alignment$u20$as$u20$core..fmt..Debug$GT$3fmt17hec585477c2143b70E@Base 3.2.4-0nkmi1~noble
 _ZN68_$LT$core..slice..ascii..EscapeAscii$u20$as$u20$core..fmt..Debug$GT$3fmt17hcc342f28cc71c752E@Base 3.2.4-0nkmi1~noble
 _ZN68_$LT$core..sync..atomic..AtomicIsize$u20$as$u20$core..fmt..Debug$GT$3fmt17h3e4dab30229e3007E@Base 3.2.4-0nkmi1~noble
 _ZN68_$LT$core..sync..atomic..AtomicUsize$u20$as$u20$core..fmt..Debug$GT$3fmt17he25d3b0776d97009E@Base 3.2.4-0nkmi1~noble
 _ZN68_$LT$gimli..read..abbrev..Attributes$u20$as$u20$core..fmt..Debug$GT$3fmt17h02afe274ffd98ba5E@Base 3.2.4-0nkmi1~noble
 _ZN68_$LT$rustc_demangle..DemangleStyle$u20$as$u20$core..fmt..Display$GT$3fmt17h1cc42936b879968fE@Base 3.2.4-0nkmi1~noble
 _ZN68_$LT$std..backtrace..BacktraceSymbol$u20$as$u20$core..fmt..Debug$GT$3fmt17h6749614bf70b91a7E@Base 3.2.4-0nkmi1~noble
 _ZN68_$LT$std..process..ExitStatusError$u20$as$u20$core..fmt..Display$GT$3fmt17h9a808bf072cb0373E@Base 3.2.4-0nkmi1~noble
 _ZN68_$LT$std..sync..mpsc..TryRecvError$u20$as$u20$core..fmt..Display$GT$3fmt17h57b3b119c03e9768E@Base 3.2.4-0nkmi1~noble
 _ZN68_$LT$std..sys..unix..os..EnvStrDebug$u20$as$u20$core..fmt..Debug$GT$3fmt17hb3820e63cf2c1487E@Base 3.2.4-0nkmi1~noble
 _ZN68_$LT$std..sys..unix..os_str..Slice$u20$as$u20$core..fmt..Display$GT$3fmt17h11bc299a5cb08151E@Base 3.2.4-0nkmi1~noble
 _ZN68_$LT$std..sys_common..net..TcpStream$u20$as$u20$core..fmt..Debug$GT$3fmt17hf200cf629dac04e8E@Base 3.2.4-0nkmi1~noble
 _ZN68_$LT$std..sys_common..net..UdpSocket$u20$as$u20$core..fmt..Debug$GT$3fmt17ha15e2d076a3db156E@Base 3.2.4-0nkmi1~noble
 _ZN68_$LT$std..thread..local..AccessError$u20$as$u20$core..fmt..Debug$GT$3fmt17h55af999d5dccaf1fE@Base 3.2.4-0nkmi1~noble
 _ZN69_$LT$alloc..ffi..c_str..CString$u20$as$u20$core..default..Default$GT$7default17h5c33f87bf664e4f3E@Base 3.2.4-0nkmi1~noble
 _ZN69_$LT$core..num..bignum..Big32x40$u20$as$u20$core..cmp..PartialOrd$GT$11partial_cmp17hd58195363235fa99E@Base 3.2.4-0nkmi1~noble
 _ZN69_$LT$core..num..bignum..tests..Big8x3$u20$as$u20$core..fmt..Debug$GT$3fmt17h6f7d49d1cbefc4f1E@Base 3.2.4-0nkmi1~noble
 _ZN69_$LT$core..str..iter..EscapeDefault$u20$as$u20$core..fmt..Display$GT$3fmt17h2b1dcc857077c574E@Base 3.2.4-0nkmi1~noble
 _ZN69_$LT$core..str..iter..EscapeUnicode$u20$as$u20$core..fmt..Display$GT$3fmt17haa7cd16c059bbd42E@Base 3.2.4-0nkmi1~noble
 _ZN69_$LT$std..sync..mpmc..zero..ZeroToken$u20$as$u20$core..fmt..Debug$GT$3fmt17ha97995faf01b5b08E@Base 3.2.4-0nkmi1~noble
 _ZN69_$LT$std..sys..unix..time..SystemTime$u20$as$u20$core..fmt..Debug$GT$3fmt17h60331ae633b485d8E@Base 3.2.4-0nkmi1~noble
 _ZN6memchr4arch6x86_646memchr10memchr_raw2FN17h9664d9c9d39ce97bE@Base 3.2.4-0nkmi1~noble
 _ZN6memchr4arch6x86_646memchr10memchr_raw6detect17h8ac49689bba59463E@Base 3.2.4-0nkmi1~noble
 _ZN6memchr4arch6x86_646memchr11memchr2_raw2FN17hbe5caac3ec2df11bE@Base 3.2.4-0nkmi1~noble
 _ZN6memchr4arch6x86_646memchr11memchr2_raw6detect17h6805d0270e781958E@Base 3.2.4-0nkmi1~noble
 _ZN6memchr4arch6x86_646memchr11memchr3_raw2FN17hbca81ee9c6d98686E@Base 3.2.4-0nkmi1~noble
 _ZN6memchr4arch6x86_646memchr11memchr3_raw6detect17h271ed6454b0906b1E@Base 3.2.4-0nkmi1~noble
 _ZN6memchr4arch6x86_646memchr11memrchr_raw2FN17h122832cd5d9d9179E@Base 3.2.4-0nkmi1~noble
 _ZN6memchr4arch6x86_646memchr11memrchr_raw6detect17h6e60d3e06c9d0e7bE@Base 3.2.4-0nkmi1~noble
 _ZN6memchr4arch6x86_646memchr12memrchr2_raw2FN17he8da15f4b73147beE@Base 3.2.4-0nkmi1~noble
 _ZN6memchr4arch6x86_646memchr12memrchr2_raw6detect17hd4b22bc90c9eb357E@Base 3.2.4-0nkmi1~noble
 _ZN6memchr4arch6x86_646memchr12memrchr3_raw2FN17hf12446de750c8dbdE@Base 3.2.4-0nkmi1~noble
 _ZN6memchr4arch6x86_646memchr12memrchr3_raw6detect17hb2dddcbbfe88e578E@Base 3.2.4-0nkmi1~noble
 _ZN6memchr4arch6x86_646memchr9count_raw2FN17h01828bfe24804addE@Base 3.2.4-0nkmi1~noble
 _ZN6memchr4arch6x86_646memchr9count_raw6detect17h3d590a71659bc060E@Base 3.2.4-0nkmi1~noble
 _ZN70_$LT$core..fmt..num..Octal$u20$as$u20$core..fmt..num..GenericRadix$GT$5digit17h11a5c2c3b213fe41E@Base 3.2.4-0nkmi1~noble
 _ZN70_$LT$core..num..error..ParseIntError$u20$as$u20$core..fmt..Display$GT$3fmt17h154fde1f9f49510eE@Base 3.2.4-0nkmi1~noble
 _ZN70_$LT$core..panic..location..Location$u20$as$u20$core..fmt..Display$GT$3fmt17hf1f30bd2c23f530dE@Base 3.2.4-0nkmi1~noble
 _ZN70_$LT$core..slice..ascii..EscapeAscii$u20$as$u20$core..fmt..Display$GT$3fmt17ha0286f8a3fb73211E@Base 3.2.4-0nkmi1~noble
 _ZN70_$LT$std..sys_common..net..TcpListener$u20$as$u20$core..fmt..Debug$GT$3fmt17h775a8caa5a297500E@Base 3.2.4-0nkmi1~noble
 _ZN70_$LT$std..thread..local..AccessError$u20$as$u20$core..fmt..Display$GT$3fmt17h82bc0a5fde0dfd72E@Base 3.2.4-0nkmi1~noble
 _ZN71_$LT$core..alloc..layout..LayoutError$u20$as$u20$core..fmt..Display$GT$3fmt17hbb24e46b0ae0643bE@Base 3.2.4-0nkmi1~noble
 _ZN71_$LT$core..ascii..ascii_char..AsciiChar$u20$as$u20$core..fmt..Debug$GT$3fmt17h7b014015162ec0ceE@Base 3.2.4-0nkmi1~noble
 _ZN71_$LT$core..fmt..num..Binary$u20$as$u20$core..fmt..num..GenericRadix$GT$5digit17hd8dce8eda8fa315fE@Base 3.2.4-0nkmi1~noble
 _ZN71_$LT$core..net..socket_addr..SocketAddr$u20$as$u20$core..fmt..Debug$GT$3fmt17h2f591c9092f18fe2E@Base 3.2.4-0nkmi1~noble
 _ZN71_$LT$core..str..error..ParseBoolError$u20$as$u20$core..fmt..Display$GT$3fmt17hbee885b17089cc06E@Base 3.2.4-0nkmi1~noble
 _ZN71_$LT$rustc_demangle..legacy..Demangle$u20$as$u20$core..fmt..Display$GT$3fmt17hfda4b814ac9a0dfeE@Base 3.2.4-0nkmi1~noble
 _ZN71_$LT$std..fs..File$u20$as$u20$std..sys..unix..kernel_copy..CopyRead$GT$10properties17h527d83b09b2c76c8E@Base 3.2.4-0nkmi1~noble
 _ZN72_$LT$$RF$str$u20$as$u20$alloc..ffi..c_str..CString..new..SpecNewImpl$GT$13spec_new_impl17h197646e99e1e86d6E@Base 3.2.4-0nkmi1~noble
 _ZN72_$LT$alloc..string..Drain$u20$as$u20$core..convert..AsRef$LT$str$GT$$GT$6as_ref17h16b9f5ff212a50d6E@Base 3.2.4-0nkmi1~noble
 _ZN72_$LT$core..io..borrowed_buf..BorrowedBuf$u20$as$u20$core..fmt..Debug$GT$3fmt17h31a82923d07e2461E@Base 3.2.4-0nkmi1~noble
 _ZN72_$LT$core..net..parser..AddrParseError$u20$as$u20$core..fmt..Display$GT$3fmt17h74e06fd264cc68c4E@Base 3.2.4-0nkmi1~noble
 _ZN72_$LT$core..num..error..TryFromIntError$u20$as$u20$core..fmt..Display$GT$3fmt17h57dc7feb5e7dd6a1E@Base 3.2.4-0nkmi1~noble
 _ZN72_$LT$core..time..TryFromFloatSecsError$u20$as$u20$core..fmt..Display$GT$3fmt17ha0bec09e80c9dd2cE@Base 3.2.4-0nkmi1~noble
 _ZN72_$LT$gimli..read..abbrev..Attributes$u20$as$u20$core..cmp..PartialEq$GT$2eq17he11677d640b8efeaE@Base 3.2.4-0nkmi1~noble
 _ZN72_$LT$std..backtrace_rs..backtrace..Frame$u20$as$u20$core..fmt..Debug$GT$3fmt17h8d6de6e20902e37bE@Base 3.2.4-0nkmi1~noble
 _ZN72_$LT$std..fs..File$u20$as$u20$std..sys..unix..kernel_copy..CopyWrite$GT$10properties17hcd45cdbf75e2ad05E@Base 3.2.4-0nkmi1~noble
 _ZN72_$LT$std..os..unix..net..stream..UnixStream$u20$as$u20$std..io..Read$GT$13read_vectored17hf73e22b6e6447c62E@Base 3.2.4-0nkmi1~noble
 _ZN72_$LT$std..os..unix..net..stream..UnixStream$u20$as$u20$std..io..Read$GT$4read17h631f01a10d8e3afdE@Base 3.2.4-0nkmi1~noble
 _ZN72_$LT$std..sync..mpsc..RecvTimeoutError$u20$as$u20$core..fmt..Display$GT$3fmt17h6c87abbf7ac6963aE@Base 3.2.4-0nkmi1~noble
 _ZN72_$LT$std..sys..unix..fs..File$u20$as$u20$std..os..fd..raw..FromRawFd$GT$11from_raw_fd17he15d65afa6267e49E@Base 3.2.4-0nkmi1~noble
 _ZN72_$LT$std..sys..unix..net..Socket$u20$as$u20$std..os..fd..owned..AsFd$GT$5as_fd17h0a4377f205b7a20aE@Base 3.2.4-0nkmi1~noble
 _ZN72_$LT$std..sys..unix..thread..Thread$u20$as$u20$core..ops..drop..Drop$GT$4drop17hb481497a4ec6a2dcE@Base 3.2.4-0nkmi1~noble
 _ZN73_$LT$$RF$alloc..string..String$u20$as$u20$core..str..pattern..Pattern$GT$13into_searcher17h070e7317591d0a84E@Base 3.2.4-0nkmi1~noble
 _ZN73_$LT$alloc..ffi..c_str..IntoStringError$u20$as$u20$core..fmt..Display$GT$3fmt17h4272d41913f0e6eaE@Base 3.2.4-0nkmi1~noble
 _ZN73_$LT$core..ascii..ascii_char..AsciiChar$u20$as$u20$core..fmt..Display$GT$3fmt17h7266e65ffcd48879E@Base 3.2.4-0nkmi1~noble
 _ZN73_$LT$core..fmt..num..LowerHex$u20$as$u20$core..fmt..num..GenericRadix$GT$5digit17hc36ce1761a0a6a48E@Base 3.2.4-0nkmi1~noble
 _ZN73_$LT$core..fmt..num..UpperHex$u20$as$u20$core..fmt..num..GenericRadix$GT$5digit17h842acdba27e38392E@Base 3.2.4-0nkmi1~noble
 _ZN73_$LT$core..net..socket_addr..SocketAddr$u20$as$u20$core..fmt..Display$GT$3fmt17h4d8ea22b06c3dfd9E@Base 3.2.4-0nkmi1~noble
 _ZN73_$LT$core..net..socket_addr..SocketAddrV4$u20$as$u20$core..fmt..Debug$GT$3fmt17hbdd8c1fdcd754eacE@Base 3.2.4-0nkmi1~noble
 _ZN73_$LT$core..net..socket_addr..SocketAddrV6$u20$as$u20$core..fmt..Debug$GT$3fmt17h335187bf11717bc3E@Base 3.2.4-0nkmi1~noble
 _ZN73_$LT$core..num..bignum..tests..Big8x3$u20$as$u20$core..cmp..PartialEq$GT$2eq17hcfbbd5dd39e6a40dE@Base 3.2.4-0nkmi1~noble
 _ZN73_$LT$core..panic..panic_info..PanicInfo$u20$as$u20$core..fmt..Display$GT$3fmt17h29ef53b67ca5f520E@Base 3.2.4-0nkmi1~noble
 _ZN73_$LT$std..backtrace_rs..symbolize..Symbol$u20$as$u20$core..fmt..Debug$GT$3fmt17h1d4a948f1d299070E@Base 3.2.4-0nkmi1~noble
 _ZN73_$LT$std..env..Args$u20$as$u20$core..iter..traits..iterator..Iterator$GT$4next17h6132073fbf698433E@Base 3.2.4-0nkmi1~noble
 _ZN73_$LT$std..env..Args$u20$as$u20$core..iter..traits..iterator..Iterator$GT$9size_hint17h9417c19765810b59E@Base 3.2.4-0nkmi1~noble
 _ZN73_$LT$std..env..Vars$u20$as$u20$core..iter..traits..iterator..Iterator$GT$4next17h3d0f8de7e7fdb929E@Base 3.2.4-0nkmi1~noble
 _ZN73_$LT$std..env..Vars$u20$as$u20$core..iter..traits..iterator..Iterator$GT$9size_hint17h76db57e660cbe618E@Base 3.2.4-0nkmi1~noble
 _ZN73_$LT$std..os..unix..net..addr..SocketAddr$u20$as$u20$core..fmt..Debug$GT$3fmt17h0a46a27054ff792bE@Base 3.2.4-0nkmi1~noble
 _ZN73_$LT$std..os..unix..net..stream..UnixStream$u20$as$u20$std..io..Write$GT$14write_vectored17h5f11deb5cccece27E@Base 3.2.4-0nkmi1~noble
 _ZN73_$LT$std..os..unix..net..stream..UnixStream$u20$as$u20$std..io..Write$GT$5write17ha5c1de7e459f920fE@Base 3.2.4-0nkmi1~noble
 _ZN73_$LT$std..sys..unix..fd..FileDesc$u20$as$u20$std..os..fd..owned..AsFd$GT$5as_fd17h45f4f49f1fbe2014E@Base 3.2.4-0nkmi1~noble
 _ZN73_$LT$std..sys..unix..os..JoinPathsError$u20$as$u20$core..fmt..Display$GT$3fmt17hf11c6eac1a026bf6E@Base 3.2.4-0nkmi1~noble
 _ZN73_$LT$std..sys_common..process..CommandEnv$u20$as$u20$core..fmt..Debug$GT$3fmt17h90dd80398b246240E@Base 3.2.4-0nkmi1~noble
 _ZN74_$LT$alloc..collections..TryReserveError$u20$as$u20$core..fmt..Display$GT$3fmt17h21bf46d694031b89E@Base 3.2.4-0nkmi1~noble
 _ZN74_$LT$core..char..convert..ParseCharError$u20$as$u20$core..fmt..Display$GT$3fmt17h8281004dd000a93dE@Base 3.2.4-0nkmi1~noble
 _ZN74_$LT$core..num..bignum..tests..Big8x3$u20$as$u20$core..cmp..PartialOrd$GT$11partial_cmp17ha18ac7ba960bff24E@Base 3.2.4-0nkmi1~noble
 _ZN74_$LT$core..num..dec2flt..ParseFloatError$u20$as$u20$core..fmt..Display$GT$3fmt17h3f0ed6331c5c04b6E@Base 3.2.4-0nkmi1~noble
 _ZN74_$LT$std..sync..barrier..BarrierWaitResult$u20$as$u20$core..fmt..Debug$GT$3fmt17hf319ee71f7a75547E@Base 3.2.4-0nkmi1~noble
 _ZN74_$LT$std..sys_common..net..LookupHost$u20$as$u20$core..ops..drop..Drop$GT$4drop17h50b58369417731a5E@Base 3.2.4-0nkmi1~noble
 _ZN75_$LT$$RF$std..fs..File$u20$as$u20$std..sys..unix..kernel_copy..CopyRead$GT$10properties17hc774c72db6de85f3E@Base 3.2.4-0nkmi1~noble
 _ZN75_$LT$core..char..decode..DecodeUtf16Error$u20$as$u20$core..fmt..Display$GT$3fmt17hc6e60f212f905cf7E@Base 3.2.4-0nkmi1~noble
 _ZN75_$LT$core..net..socket_addr..SocketAddrV4$u20$as$u20$core..fmt..Display$GT$3fmt17hb345ce968e74edffE@Base 3.2.4-0nkmi1~noble
 _ZN75_$LT$core..net..socket_addr..SocketAddrV6$u20$as$u20$core..fmt..Display$GT$3fmt17hd5c1b61dc52be9b6E@Base 3.2.4-0nkmi1~noble
 _ZN75_$LT$gimli..read..abbrev..Attributes$u20$as$u20$core..ops..deref..Deref$GT$5deref17h8881f16dae0a3a9bE@Base 3.2.4-0nkmi1~noble
 _ZN75_$LT$std..env..ArgsOs$u20$as$u20$core..iter..traits..iterator..Iterator$GT$4next17hfc4b576c1cae7447E@Base 3.2.4-0nkmi1~noble
 _ZN75_$LT$std..env..ArgsOs$u20$as$u20$core..iter..traits..iterator..Iterator$GT$9size_hint17h6795c88bd86e7b91E@Base 3.2.4-0nkmi1~noble
 _ZN75_$LT$std..env..VarsOs$u20$as$u20$core..iter..traits..iterator..Iterator$GT$4next17hf01e3c9a7635d92aE@Base 3.2.4-0nkmi1~noble
 _ZN75_$LT$std..env..VarsOs$u20$as$u20$core..iter..traits..iterator..Iterator$GT$9size_hint17h309e28e3bbe6abd6E@Base 3.2.4-0nkmi1~noble
 _ZN75_$LT$std..fs..ReadDir$u20$as$u20$core..iter..traits..iterator..Iterator$GT$4next17h85a93f66126e0950E@Base 3.2.4-0nkmi1~noble
 _ZN75_$LT$std..os..linux..process..PidFd$u20$as$u20$std..os..fd..owned..AsFd$GT$5as_fd17h356448ebc4e28c88E@Base 3.2.4-0nkmi1~noble
 _ZN75_$LT$std..os..unix..net..stream..UnixStream$u20$as$u20$core..fmt..Debug$GT$3fmt17h5428143c6fdc6899E@Base 3.2.4-0nkmi1~noble
 _ZN75_$LT$std..sys..unix..net..Socket$u20$as$u20$std..os..fd..raw..FromRawFd$GT$11from_raw_fd17hf128beb7862c471bE@Base 3.2.4-0nkmi1~noble
 _ZN75_$LT$std..sys..unix..pipe..AnonPipe$u20$as$u20$std..os..fd..owned..AsFd$GT$5as_fd17h3470982715bd32c2E@Base 3.2.4-0nkmi1~noble
 _ZN76_$LT$$RF$std..fs..File$u20$as$u20$std..sys..unix..kernel_copy..CopyWrite$GT$10properties17hc0abe23801537f88E@Base 3.2.4-0nkmi1~noble
 _ZN76_$LT$$RF$std..os..unix..net..stream..UnixStream$u20$as$u20$std..io..Read$GT$13read_vectored17hd93f7df82ebf00d8E@Base 3.2.4-0nkmi1~noble
 _ZN76_$LT$$RF$std..os..unix..net..stream..UnixStream$u20$as$u20$std..io..Read$GT$4read17hde57050eee8e1c8eE@Base 3.2.4-0nkmi1~noble
 _ZN76_$LT$core..char..convert..CharTryFromError$u20$as$u20$core..fmt..Display$GT$3fmt17h7b7909c7afe55777E@Base 3.2.4-0nkmi1~noble
 _ZN76_$LT$core..mem..transmutability..Assume$u20$as$u20$core..ops..arith..Add$GT$3add17hf465c265b269e07bE@Base 3.2.4-0nkmi1~noble
 _ZN76_$LT$core..mem..transmutability..Assume$u20$as$u20$core..ops..arith..Sub$GT$3sub17h78a1a273419a33a3E@Base 3.2.4-0nkmi1~noble
 _ZN76_$LT$core..net..ip_addr..Ipv4Addr$u20$as$u20$core..ops..bit..BitOrAssign$GT$12bitor_assign17h18c53bdc3db31de6E@Base 3.2.4-0nkmi1~noble
 _ZN76_$LT$core..net..ip_addr..Ipv6Addr$u20$as$u20$core..ops..bit..BitOrAssign$GT$12bitor_assign17hf4abb581ac120ab2E@Base 3.2.4-0nkmi1~noble
 _ZN76_$LT$core..num..nonzero..NonZeroI8$u20$as$u20$core..str..traits..FromStr$GT$8from_str17h1c932bb70f7fae3aE@Base 3.2.4-0nkmi1~noble
 _ZN76_$LT$core..num..nonzero..NonZeroU8$u20$as$u20$core..str..traits..FromStr$GT$8from_str17h307b1aef4888a505E@Base 3.2.4-0nkmi1~noble
 _ZN76_$LT$std..process..Command$u20$as$u20$std..os..unix..process..CommandExt$GT$4exec17h7b23527be5077d7aE@Base 3.2.4-0nkmi1~noble
 _ZN76_$LT$std..process..Command$u20$as$u20$std..os..unix..process..CommandExt$GT$6groups17h4fcfa689b7270d7bE@Base 3.2.4-0nkmi1~noble
 _ZN76_$LT$std..sys..unix..fd..FileDesc$u20$as$u20$std..os..fd..raw..FromRawFd$GT$11from_raw_fd17hcb66fbad70ba4ef9E@Base 3.2.4-0nkmi1~noble
 _ZN77_$LT$$RF$std..os..unix..net..stream..UnixStream$u20$as$u20$std..io..Write$GT$14write_vectored17h80db7e3973c81ba0E@Base 3.2.4-0nkmi1~noble
 _ZN77_$LT$$RF$std..os..unix..net..stream..UnixStream$u20$as$u20$std..io..Write$GT$5write17hf46014afa3d19546E@Base 3.2.4-0nkmi1~noble
 _ZN77_$LT$adler..algo..U32X4$u20$as$u20$core..ops..arith..MulAssign$LT$u32$GT$$GT$10mul_assign17h036fd2c80de795d3E@Base 3.2.4-0nkmi1~noble
 _ZN77_$LT$adler..algo..U32X4$u20$as$u20$core..ops..arith..RemAssign$LT$u32$GT$$GT$10rem_assign17h3b01fa7ac94263edE@Base 3.2.4-0nkmi1~noble
 _ZN77_$LT$alloc..borrow..Cow$LT$str$GT$$u20$as$u20$core..ops..arith..AddAssign$GT$10add_assign17h8e572866b77f662eE@Base 3.2.4-0nkmi1~noble
 _ZN77_$LT$alloc..ffi..c_str..FromVecWithNulError$u20$as$u20$core..fmt..Display$GT$3fmt17h28b7fd8c92ed2e1aE@Base 3.2.4-0nkmi1~noble
 _ZN77_$LT$core..net..ip_addr..Ipv4Addr$u20$as$u20$core..ops..bit..BitAndAssign$GT$13bitand_assign17hdd66e49f794f15c4E@Base 3.2.4-0nkmi1~noble
 _ZN77_$LT$core..net..ip_addr..Ipv6Addr$u20$as$u20$core..ops..bit..BitAndAssign$GT$13bitand_assign17h71bb4a10eb0cdbf1E@Base 3.2.4-0nkmi1~noble
 _ZN77_$LT$core..num..nonzero..NonZeroI16$u20$as$u20$core..str..traits..FromStr$GT$8from_str17h39f9518114513773E@Base 3.2.4-0nkmi1~noble
 _ZN77_$LT$core..num..nonzero..NonZeroI32$u20$as$u20$core..str..traits..FromStr$GT$8from_str17h0928b7b3afc24034E@Base 3.2.4-0nkmi1~noble
 _ZN77_$LT$core..num..nonzero..NonZeroI64$u20$as$u20$core..str..traits..FromStr$GT$8from_str17hdde394ac420bc8b6E@Base 3.2.4-0nkmi1~noble
 _ZN77_$LT$core..num..nonzero..NonZeroU16$u20$as$u20$core..str..traits..FromStr$GT$8from_str17h0d61a46e91fdf3bdE@Base 3.2.4-0nkmi1~noble
 _ZN77_$LT$core..num..nonzero..NonZeroU32$u20$as$u20$core..str..traits..FromStr$GT$8from_str17he2d698f6231e4970E@Base 3.2.4-0nkmi1~noble
 _ZN77_$LT$core..num..nonzero..NonZeroU64$u20$as$u20$core..str..traits..FromStr$GT$8from_str17h77a34975f9df0821E@Base 3.2.4-0nkmi1~noble
 _ZN77_$LT$std..backtrace_rs..symbolize..SymbolName$u20$as$u20$core..fmt..Debug$GT$3fmt17h19763260274b4330E@Base 3.2.4-0nkmi1~noble
 _ZN77_$LT$std..collections..hash..map..RandomState$u20$as$u20$core..fmt..Debug$GT$3fmt17hb5d04e965ab59e85E@Base 3.2.4-0nkmi1~noble
 _ZN78_$LT$$LP$$RF$str$C$u16$RP$$u20$as$u20$std..net..socket_addr..ToSocketAddrs$GT$15to_socket_addrs17h8c958161f4bcd7a9E@Base 3.2.4-0nkmi1~noble
 _ZN78_$LT$alloc..string..String$u20$as$u20$std..net..socket_addr..ToSocketAddrs$GT$15to_socket_addrs17h8a3473e14777f8c3E@Base 3.2.4-0nkmi1~noble
 _ZN78_$LT$core..error..Source$u20$as$u20$core..iter..traits..iterator..Iterator$GT$4next17h61c1ff6bccaada14E@Base 3.2.4-0nkmi1~noble
 _ZN78_$LT$core..ffi..c_str..FromBytesWithNulError$u20$as$u20$core..fmt..Display$GT$3fmt17hd3041506203503f2E@Base 3.2.4-0nkmi1~noble
 _ZN78_$LT$core..num..nonzero..NonZeroI128$u20$as$u20$core..str..traits..FromStr$GT$8from_str17h0aa0f00df61abe58E@Base 3.2.4-0nkmi1~noble
 _ZN78_$LT$core..num..nonzero..NonZeroU128$u20$as$u20$core..str..traits..FromStr$GT$8from_str17h69e7f0cc3869018bE@Base 3.2.4-0nkmi1~noble
 _ZN78_$LT$std..os..linux..process..PidFd$u20$as$u20$std..os..fd..raw..FromRawFd$GT$11from_raw_fd17h0e2e0a6c514b97b6E@Base 3.2.4-0nkmi1~noble
 _ZN78_$LT$std..sys..unix..pipe..AnonPipe$u20$as$u20$std..os..fd..raw..FromRawFd$GT$11from_raw_fd17h11cb7f9e645b7a6dE@Base 3.2.4-0nkmi1~noble
 _ZN79_$LT$alloc..string..Drain$u20$as$u20$core..iter..traits..iterator..Iterator$GT$9size_hint17hb8be55b900e8e37aE@Base 3.2.4-0nkmi1~noble
 _ZN79_$LT$core..ffi..c_str..FromBytesUntilNulError$u20$as$u20$core..fmt..Display$GT$3fmt17h2d2757782dd651a8E@Base 3.2.4-0nkmi1~noble
 _ZN79_$LT$core..num..nonzero..NonZeroIsize$u20$as$u20$core..str..traits..FromStr$GT$8from_str17haed8b1ba222d2af1E@Base 3.2.4-0nkmi1~noble
 _ZN79_$LT$core..num..nonzero..NonZeroUsize$u20$as$u20$core..str..traits..FromStr$GT$8from_str17h6f33bc069aa3bb94E@Base 3.2.4-0nkmi1~noble
 _ZN79_$LT$std..backtrace_rs..symbolize..SymbolName$u20$as$u20$core..fmt..Display$GT$3fmt17h87672378c5c0767aE@Base 3.2.4-0nkmi1~noble
 _ZN79_$LT$std..env..SplitPaths$u20$as$u20$core..iter..traits..iterator..Iterator$GT$4next17hec9c787df47ce910E@Base 3.2.4-0nkmi1~noble
 _ZN79_$LT$std..os..unix..net..datagram..UnixDatagram$u20$as$u20$core..fmt..Debug$GT$3fmt17hc0691b9322fce9b7E@Base 3.2.4-0nkmi1~noble
 _ZN79_$LT$std..os..unix..net..listener..UnixListener$u20$as$u20$core..fmt..Debug$GT$3fmt17h43127dca6d1fce10E@Base 3.2.4-0nkmi1~noble
 _ZN80_$LT$alloc..vec..Vec$LT$u8$GT$$u20$as$u20$core..convert..From$LT$$RF$str$GT$$GT$4from17h781cec3cd72934e3E@Base 3.2.4-0nkmi1~noble
 _ZN80_$LT$std..path..Components$u20$as$u20$core..iter..traits..iterator..Iterator$GT$4next17h542646893ba92980E@Base 3.2.4-0nkmi1~noble
 _ZN81_$LT$$RF$$u5b$u8$u5d$$u20$as$u20$alloc..ffi..c_str..CString..new..SpecNewImpl$GT$13spec_new_impl17h114d4a46527b2f73E@Base 3.2.4-0nkmi1~noble
 _ZN81_$LT$alloc..string..Drain$u20$as$u20$core..convert..AsRef$LT$$u5b$u8$u5d$$GT$$GT$6as_ref17h9b7fca2badc490f5E@Base 3.2.4-0nkmi1~noble
 _ZN81_$LT$std..io..buffered..bufwriter..WriterPanicked$u20$as$u20$core..fmt..Debug$GT$3fmt17h2d05a2219fe4e0e3E@Base 3.2.4-0nkmi1~noble
 _ZN81_$LT$std..sys..unix..stack_overflow..Handler$u20$as$u20$core..ops..drop..Drop$GT$4drop17hf4ff0f7122e47928E@Base 3.2.4-0nkmi1~noble
 _ZN82_$LT$core..char..ToLowercase$u20$as$u20$core..iter..traits..iterator..Iterator$GT$4next17h1ddc5aa5457a25efE@Base 3.2.4-0nkmi1~noble
 _ZN82_$LT$core..char..ToUppercase$u20$as$u20$core..iter..traits..iterator..Iterator$GT$4next17h46bb9a59d5be581cE@Base 3.2.4-0nkmi1~noble
 _ZN82_$LT$dyn$u20$core..any..Any$u2b$core..marker..Send$u20$as$u20$core..fmt..Debug$GT$3fmt17hab66de2f8fc08a14E@Base 3.2.4-0nkmi1~noble
 _ZN82_$LT$std..net..tcp..Incoming$u20$as$u20$core..iter..traits..iterator..Iterator$GT$4next17h3923cae6799f54e7E@Base 3.2.4-0nkmi1~noble
 _ZN82_$LT$std..sys..unix..os..Env$u20$as$u20$core..iter..traits..iterator..Iterator$GT$4next17h0430ec45bc4e2304E@Base 3.2.4-0nkmi1~noble
 _ZN82_$LT$std..sys..unix..os..Env$u20$as$u20$core..iter..traits..iterator..Iterator$GT$9size_hint17h5c2a1e8c19311361E@Base 3.2.4-0nkmi1~noble
 _ZN83_$LT$std..io..buffered..bufwriter..WriterPanicked$u20$as$u20$core..fmt..Display$GT$3fmt17h284e0e08ba085958E@Base 3.2.4-0nkmi1~noble
 _ZN83_$LT$std..io..stdio..StdinLock$u20$as$u20$std..sys..unix..kernel_copy..CopyRead$GT$10properties17hba5bb2ae53bc571cE@Base 3.2.4-0nkmi1~noble
 _ZN84_$LT$core..panicking..assert_matches_failed..Pattern$u20$as$u20$core..fmt..Debug$GT$3fmt17hed5d89db4c2c518cE@Base 3.2.4-0nkmi1~noble
 _ZN84_$LT$std..env..Args$u20$as$u20$core..iter..traits..exact_size..ExactSizeIterator$GT$3len17h87ff5d178ce91cfbE@Base 3.2.4-0nkmi1~noble
 _ZN84_$LT$std..env..Args$u20$as$u20$core..iter..traits..exact_size..ExactSizeIterator$GT$8is_empty17h4e444282b549a06dE@Base 3.2.4-0nkmi1~noble
 _ZN84_$LT$std..process..CommandArgs$u20$as$u20$core..iter..traits..iterator..Iterator$GT$4next17h2b935f158b0ac1deE@Base 3.2.4-0nkmi1~noble
 _ZN84_$LT$std..process..CommandArgs$u20$as$u20$core..iter..traits..iterator..Iterator$GT$9size_hint17h5c6166eadb5b3d0cE@Base 3.2.4-0nkmi1~noble
 _ZN85_$LT$std..backtrace_rs..backtrace..libunwind..Frame$u20$as$u20$core..clone..Clone$GT$5clone17h975ba7cc859df2eeE@Base 3.2.4-0nkmi1~noble
 _ZN85_$LT$std..io..stdio..StderrLock$u20$as$u20$std..sys..unix..kernel_copy..CopyWrite$GT$10properties17h0e0d6dbcbfb7e0d3E@Base 3.2.4-0nkmi1~noble
 _ZN85_$LT$std..io..stdio..StdoutLock$u20$as$u20$std..sys..unix..kernel_copy..CopyWrite$GT$10properties17h1a32260a8969e5a2E@Base 3.2.4-0nkmi1~noble
 _ZN85_$LT$std..sys..unix..args..Args$u20$as$u20$core..iter..traits..iterator..Iterator$GT$4next17hf192e7232ac4eb38E@Base 3.2.4-0nkmi1~noble
 _ZN85_$LT$std..sys..unix..args..Args$u20$as$u20$core..iter..traits..iterator..Iterator$GT$9size_hint17h0bc8edb99dafe280E@Base 3.2.4-0nkmi1~noble
 _ZN85_$LT$std..sys..unix..process..process_common..Command$u20$as$u20$core..fmt..Debug$GT$3fmt17ha53ab9ba9f22162aE@Base 3.2.4-0nkmi1~noble
 _ZN86_$LT$std..env..ArgsOs$u20$as$u20$core..iter..traits..exact_size..ExactSizeIterator$GT$3len17hae7bd195b3b7ce9cE@Base 3.2.4-0nkmi1~noble
 _ZN86_$LT$std..env..ArgsOs$u20$as$u20$core..iter..traits..exact_size..ExactSizeIterator$GT$8is_empty17h8ddd914c51faf834E@Base 3.2.4-0nkmi1~noble
 _ZN86_$LT$std..net..tcp..IntoIncoming$u20$as$u20$core..iter..traits..iterator..Iterator$GT$4next17ha862888b1eba9564E@Base 3.2.4-0nkmi1~noble
 _ZN86_$LT$std..sys..unix..fs..ReadDir$u20$as$u20$core..iter..traits..iterator..Iterator$GT$4next17h4a98c3a4d7cf5e77E@Base 3.2.4-0nkmi1~noble
 _ZN86_$LT$std..sys..unix..process..process_common..ExitCode$u20$as$u20$core..fmt..Debug$GT$3fmt17h394e1ff4dcc1c217E@Base 3.2.4-0nkmi1~noble
 _ZN87_$LT$core..str..lossy..Utf8Chunks$u20$as$u20$core..iter..traits..iterator..Iterator$GT$4next17h8755a1841a6f0429E@Base 3.2.4-0nkmi1~noble
 _ZN87_$LT$std..net..tcp..TcpStream$u20$as$u20$std..os..net..linux_ext..tcp..TcpStreamExt$GT$12set_quickack17hf1877d4f8f80ba1bE@Base 3.2.4-0nkmi1~noble
 _ZN87_$LT$std..net..tcp..TcpStream$u20$as$u20$std..os..net..linux_ext..tcp..TcpStreamExt$GT$8quickack17h905e8acbe8cdc336E@Base 3.2.4-0nkmi1~noble
 _ZN87_$LT$std..process..ExitStatusError$u20$as$u20$std..os..unix..process..ExitStatusExt$GT$8from_raw17h5ec2548987df1e39E@Base 3.2.4-0nkmi1~noble
 _ZN87_$LT$std..sys..unix..process..process_inner..ExitStatus$u20$as$u20$core..fmt..Debug$GT$3fmt17h4ecb0070b923c3c5E@Base 3.2.4-0nkmi1~noble
 _ZN87_$LT$std..sys_common..once..futex..CompletionGuard$u20$as$u20$core..ops..drop..Drop$GT$4drop17h90aa7126919779d1E@Base 3.2.4-0nkmi1~noble
 _ZN88_$LT$std..env..Args$u20$as$u20$core..iter..traits..double_ended..DoubleEndedIterator$GT$9next_back17hf2cea338a0e6b0b9E@Base 3.2.4-0nkmi1~noble
 _ZN88_$LT$std..time..Instant$u20$as$u20$core..ops..arith..Add$LT$core..time..Duration$GT$$GT$3add17h77ad63e619072a55E@Base 3.2.4-0nkmi1~noble
 _ZN88_$LT$std..time..Instant$u20$as$u20$core..ops..arith..Sub$LT$core..time..Duration$GT$$GT$3sub17hcf38aa4f94ef3371E@Base 3.2.4-0nkmi1~noble
 _ZN89_$LT$$RF$mut$u20$$u5b$u8$u5d$$u20$as$u20$alloc..ffi..c_str..CString..new..SpecNewImpl$GT$13spec_new_impl17h1d9a116b36f389e4E@Base 3.2.4-0nkmi1~noble
 _ZN89_$LT$std..backtrace_rs..symbolize..gimli..mmap..Mmap$u20$as$u20$core..ops..drop..Drop$GT$4drop17haa22c9767b408117E@Base 3.2.4-0nkmi1~noble
 _ZN89_$LT$std..sys..unix..os..SplitPaths$u20$as$u20$core..iter..traits..iterator..Iterator$GT$4next17h853544c84e73caa6E@Base 3.2.4-0nkmi1~noble
 _ZN89_$LT$std..sys..unix..process..process_common..CommandArgs$u20$as$u20$core..fmt..Debug$GT$3fmt17h78381ab951f4e1c8E@Base 3.2.4-0nkmi1~noble
 _ZN89_$LT$std..sys..unix..process..process_inner..ExitStatus$u20$as$u20$core..fmt..Display$GT$3fmt17ha01b87d44e625437E@Base 3.2.4-0nkmi1~noble
 _ZN90_$LT$std..env..ArgsOs$u20$as$u20$core..iter..traits..double_ended..DoubleEndedIterator$GT$9next_back17h96969110765ef66cE@Base 3.2.4-0nkmi1~noble
 _ZN90_$LT$std..sys_common..net..LookupHost$u20$as$u20$core..convert..TryFrom$LT$$RF$str$GT$$GT$8try_from17h8b99ff9dffba3a33E@Base 3.2.4-0nkmi1~noble
 _ZN91_$LT$addr2line..LocationRangeUnitIter$u20$as$u20$core..iter..traits..iterator..Iterator$GT$4next17hce1f4a0400d3d8b6E@Base 3.2.4-0nkmi1~noble
 _ZN91_$LT$hashbrown..raw..RawIterHashInner$u20$as$u20$core..iter..traits..iterator..Iterator$GT$4next17hf7f0fa8b5c61e56cE@Base 3.2.4-0nkmi1~noble
 _ZN91_$LT$std..sys_common..backtrace.._print..DisplayBacktrace$u20$as$u20$core..fmt..Display$GT$3fmt17hf2d48dfeb5948660E@Base 3.2.4-0nkmi1~noble
 _ZN91_$LT$std..sys_common..net..LookupHost$u20$as$u20$core..iter..traits..iterator..Iterator$GT$4next17hc5b10b704721f4f3E@Base 3.2.4-0nkmi1~noble
 _ZN91_$LT$std..time..SystemTime$u20$as$u20$core..ops..arith..Add$LT$core..time..Duration$GT$$GT$3add17h90e50d56d04248e6E@Base 3.2.4-0nkmi1~noble
 _ZN91_$LT$std..time..SystemTime$u20$as$u20$core..ops..arith..Sub$LT$core..time..Duration$GT$$GT$3sub17he5cdc5d5074bf621E@Base 3.2.4-0nkmi1~noble
 _ZN92_$LT$$LP$alloc..string..String$C$u16$RP$$u20$as$u20$std..net..socket_addr..ToSocketAddrs$GT$15to_socket_addrs17h1f31451507990a78E@Base 3.2.4-0nkmi1~noble
 _ZN92_$LT$alloc..borrow..Cow$LT$str$GT$$u20$as$u20$core..ops..arith..AddAssign$LT$$RF$str$GT$$GT$10add_assign17h4a3d5c7bb3121900E@Base 3.2.4-0nkmi1~noble
 _ZN92_$LT$std..sys..unix..process..process_inner..ExitStatusError$u20$as$u20$core..fmt..Debug$GT$3fmt17h1ecd3a7e2993fa83E@Base 3.2.4-0nkmi1~noble
 _ZN93_$LT$alloc..collections..btree..mem..replace..PanicGuard$u20$as$u20$core..ops..drop..Drop$GT$4drop17h20f54365fda8a6adE@Base 3.2.4-0nkmi1~noble
 _ZN94_$LT$std..time..Instant$u20$as$u20$core..ops..arith..AddAssign$LT$core..time..Duration$GT$$GT$10add_assign17he31d7dbaf639f9a4E@Base 3.2.4-0nkmi1~noble
 _ZN94_$LT$std..time..Instant$u20$as$u20$core..ops..arith..SubAssign$LT$core..time..Duration$GT$$GT$10sub_assign17h162796858b768e6cE@Base 3.2.4-0nkmi1~noble
 _ZN95_$LT$std..path..Components$u20$as$u20$core..iter..traits..double_ended..DoubleEndedIterator$GT$9next_back17h7808f7231b0d2407E@Base 3.2.4-0nkmi1~noble
 _ZN95_$LT$std..process..CommandArgs$u20$as$u20$core..iter..traits..exact_size..ExactSizeIterator$GT$3len17hf367075c82063ab9E@Base 3.2.4-0nkmi1~noble
 _ZN95_$LT$std..process..CommandArgs$u20$as$u20$core..iter..traits..exact_size..ExactSizeIterator$GT$8is_empty17h3b1f3f4e2dcc802eE@Base 3.2.4-0nkmi1~noble
 _ZN96_$LT$std..io..error..Error$u20$as$u20$core..convert..From$LT$alloc..ffi..c_str..NulError$GT$$GT$4from17haa536ba68295c495E@Base 3.2.4-0nkmi1~noble
 _ZN96_$LT$std..panicking..rust_panic_without_hook..RewrapBox$u20$as$u20$core..panic..PanicPayload$GT$8take_box17hafe0983aaf3555bcE@Base 3.2.4-0nkmi1~noble
 _ZN96_$LT$std..sys..unix..args..Args$u20$as$u20$core..iter..traits..exact_size..ExactSizeIterator$GT$3len17h21cf420442ef521bE@Base 3.2.4-0nkmi1~noble
 _ZN96_$LT$std..sys_common..process..CommandEnvs$u20$as$u20$core..iter..traits..iterator..Iterator$GT$4next17h69292f6a38c44279E@Base 3.2.4-0nkmi1~noble
 _ZN97_$LT$alloc..string..String$u20$as$u20$core..convert..From$LT$alloc..boxed..Box$LT$str$GT$$GT$$GT$4from17h6a14b9f281376045E@Base 3.2.4-0nkmi1~noble
 _ZN97_$LT$core..char..ToLowercase$u20$as$u20$core..iter..traits..double_ended..DoubleEndedIterator$GT$9next_back17hd6e17fba414351c8E@Base 3.2.4-0nkmi1~noble
 _ZN97_$LT$core..char..ToUppercase$u20$as$u20$core..iter..traits..double_ended..DoubleEndedIterator$GT$9next_back17hda3fdd2ed70c6501E@Base 3.2.4-0nkmi1~noble
 _ZN97_$LT$std..os..unix..net..listener..Incoming$u20$as$u20$core..iter..traits..iterator..Iterator$GT$4next17h696fc66ffcef0dadE@Base 3.2.4-0nkmi1~noble
 _ZN97_$LT$std..time..SystemTime$u20$as$u20$core..ops..arith..AddAssign$LT$core..time..Duration$GT$$GT$10add_assign17h65ccbd75afbd0992E@Base 3.2.4-0nkmi1~noble
 _ZN97_$LT$std..time..SystemTime$u20$as$u20$core..ops..arith..SubAssign$LT$core..time..Duration$GT$$GT$10sub_assign17h64313febbe58369dE@Base 3.2.4-0nkmi1~noble
 _ZN98_$LT$alloc..string..String$u20$as$u20$core..convert..From$LT$alloc..borrow..Cow$LT$str$GT$$GT$$GT$4from17hdc92da3fb059a5fdE@Base 3.2.4-0nkmi1~noble
 _ZN98_$LT$std..os..unix..net..ancillary..Messages$u20$as$u20$core..iter..traits..iterator..Iterator$GT$4next17h81c0448dfa70eab1E@Base 3.2.4-0nkmi1~noble
 _ZN98_$LT$std..sys..unix..time..Timespec$u20$as$u20$core..convert..From$LT$libc..unix..timespec$GT$$GT$4from17h3957acfc620ad3eeE@Base 3.2.4-0nkmi1~noble
 _ZN99_$LT$std..os..unix..net..ancillary..ScmRights$u20$as$u20$core..iter..traits..iterator..Iterator$GT$4next17h9e63b60cd2b3180aE@Base 3.2.4-0nkmi1~noble
 _ZN99_$LT$std..panicking..begin_panic_handler..StaticStrPayload$u20$as$u20$core..panic..PanicPayload$GT$8take_box17h6f67fa9c4feef1b9E@Base 3.2.4-0nkmi1~noble
 _ZN9addr2line13demangle_auto17he2027a8b53ac08c1E@Base 3.2.4-0nkmi1~noble
 _ZN9addr2line9path_push17he65c28f926b03e55E@Base 3.2.4-0nkmi1~noble
 _ZN9hashbrown3raw11Fallibility17capacity_overflow17h1df901edcf589aa1E@Base 3.2.4-0nkmi1~noble
 _ZN9hashbrown3raw11Fallibility9alloc_err17h4da2389de3b6d21eE@Base 3.2.4-0nkmi1~noble
 __rdl_oom@Base 3.2.4-0nkmi1~noble
 __rust_alloc@Base 3.2.4-0nkmi1~noble
 __rust_alloc_error_handler@Base 3.2.4-0nkmi1~noble
 __rust_alloc_error_handler_should_panic@Base 3.2.4-0nkmi1~noble
 __rust_alloc_zeroed@Base 3.2.4-0nkmi1~noble
 __rust_dealloc@Base 3.2.4-0nkmi1~noble
 __rust_drop_panic@Base 3.2.4-0nkmi1~noble
 __rust_foreign_exception@Base 3.2.4-0nkmi1~noble
 __rust_no_alloc_shim_is_unstable@Base 3.2.4-0nkmi1~noble
 __rust_panic_cleanup@Base 3.2.4-0nkmi1~noble
 __rust_realloc@Base 3.2.4-0nkmi1~noble
 __rust_start_panic@Base 3.2.4-0nkmi1~noble
 coroutine_transfer@Base 3.2.0
 dln_find_exe_r@Base 3.2.0
 dln_find_file_r@Base 3.2.0
 dln_load@Base 3.2.0
 mjit_call_p@Base 3.2.0
 mjit_opts@Base 3.2.0
 onig_add_end_call@Base 3.2.0
 onig_bbuf_init@Base 3.2.0
 onig_check_linear_time@Base 3.2.0
 onig_compile@Base 3.2.0
 onig_compile_ruby@Base 3.2.0
 onig_copy_encoding@Base 3.2.0
 onig_copy_syntax@Base 3.2.0
 onig_end@Base 3.2.0
 onig_error_code_to_format@Base 3.2.0
 onig_error_code_to_str@Base 3.2.0
 onig_foreach_name@Base 3.2.0
 onig_free@Base 3.2.0
 onig_free_body@Base 3.2.0
 onig_get_case_fold_flag@Base 3.2.0
 onig_get_default_case_fold_flag@Base 3.2.0
 onig_get_encoding@Base 3.2.0
 onig_get_match_stack_limit_size@Base 3.2.0
 onig_get_options@Base 3.2.0
 onig_get_parse_depth_limit@Base 3.2.0
 onig_get_syntax@Base 3.2.0
 onig_get_syntax_behavior@Base 3.2.0
 onig_get_syntax_op2@Base 3.2.0
 onig_get_syntax_op@Base 3.2.0
 onig_get_syntax_options@Base 3.2.0
 onig_init@Base 3.2.0
 onig_initialize@Base 3.2.0
 onig_is_code_in_cc@Base 3.2.0
 onig_is_code_in_cc_len@Base 3.2.0
 onig_is_in_code_range@Base 3.2.0
 onig_match@Base 3.2.0
 onig_memsize@Base 3.2.0
 onig_name_to_backref_number@Base 3.2.0
 onig_name_to_group_numbers@Base 3.2.0
 onig_names_free@Base 3.2.0
 onig_new@Base 3.2.0
 onig_new_without_alloc@Base 3.2.0
 onig_node_free@Base 3.2.0
 onig_node_list_add@Base 3.2.0
 onig_node_new_alt@Base 3.2.0
 onig_node_new_anchor@Base 3.2.0
 onig_node_new_enclose@Base 3.2.0
 onig_node_new_list@Base 3.2.0
 onig_node_new_str@Base 3.2.0
 onig_node_str_cat@Base 3.2.0
 onig_node_str_clear@Base 3.2.0
 onig_node_str_set@Base 3.2.0
 onig_noname_group_capture_is_active@Base 3.2.0
 onig_null_warn@Base 3.2.0
 onig_number_of_capture_histories@Base 3.2.0
 onig_number_of_captures@Base 3.2.0
 onig_number_of_names@Base 3.2.0
 onig_parse_make_tree@Base 3.2.0
 onig_reduce_nested_quantifier@Base 3.2.0
 onig_reg_init@Base 3.2.0
 onig_region_clear@Base 3.2.0
 onig_region_copy@Base 3.2.0
 onig_region_free@Base 3.2.0
 onig_region_init@Base 3.2.0
 onig_region_memsize@Base 3.2.0
 onig_region_new@Base 3.2.0
 onig_region_resize@Base 3.2.0
 onig_region_set@Base 3.2.0
 onig_renumber_name_table@Base 3.2.0
 onig_scan@Base 3.2.0
 onig_scan_env_set_error_string@Base 3.2.0
 onig_scan_unsigned_number@Base 3.2.0
 onig_search@Base 3.2.0
 onig_search_gpos@Base 3.2.0
 onig_set_default_case_fold_flag@Base 3.2.0
 onig_set_default_syntax@Base 3.2.0
 onig_set_match_stack_limit_size@Base 3.2.0
 onig_set_meta_char@Base 3.2.0
 onig_set_parse_depth_limit@Base 3.2.0
 onig_set_syntax_behavior@Base 3.2.0
 onig_set_syntax_op2@Base 3.2.0
 onig_set_syntax_op@Base 3.2.0
 onig_set_syntax_options@Base 3.2.0
 onig_set_verb_warn_func@Base 3.2.0
 onig_set_warn_func@Base 3.2.0
 onig_st_init_strend_table_with_size@Base 3.2.0
 onig_st_insert_strend@Base 3.2.0
 onig_st_lookup_strend@Base 3.2.0
 onig_strcpy@Base 3.2.0
 onig_vsnprintf_with_pattern@Base 3.2.0
 onigenc_always_false_is_allowed_reverse_match@Base 3.2.0
 onigenc_always_true_is_allowed_reverse_match@Base 3.2.0
 onigenc_apply_all_case_fold_with_map@Base 3.2.0
 onigenc_ascii_apply_all_case_fold@Base 3.2.0
 onigenc_ascii_get_case_fold_codes_by_str@Base 3.2.0
 onigenc_ascii_is_code_ctype@Base 3.2.0
 onigenc_ascii_mbc_case_fold@Base 3.2.0
 onigenc_ascii_only_case_map@Base 3.2.0
 onigenc_get_case_fold_codes_by_str_with_map@Base 3.2.0
 onigenc_get_default_encoding@Base 3.2.0
 onigenc_get_left_adjust_char_head@Base 3.2.0
 onigenc_get_prev_char_head@Base 3.2.0
 onigenc_get_right_adjust_char_head@Base 3.2.0
 onigenc_get_right_adjust_char_head_with_prev@Base 3.2.0
 onigenc_init@Base 3.2.0
 onigenc_is_mbc_newline_0x0a@Base 3.2.0
 onigenc_mb2_code_to_mbc@Base 3.2.0
 onigenc_mb2_code_to_mbclen@Base 3.2.0
 onigenc_mb2_is_code_ctype@Base 3.2.0
 onigenc_mb4_code_to_mbc@Base 3.2.0
 onigenc_mb4_code_to_mbclen@Base 3.2.0
 onigenc_mb4_is_code_ctype@Base 3.2.0
 onigenc_mbclen@Base 3.2.0
 onigenc_mbn_mbc_case_fold@Base 3.2.0
 onigenc_mbn_mbc_to_code@Base 3.2.0
 onigenc_minimum_property_name_to_ctype@Base 3.2.0
 onigenc_not_support_get_ctype_code_range@Base 3.2.0
 onigenc_set_default_encoding@Base 3.2.0
 onigenc_single_byte_ascii_only_case_map@Base 3.2.0
 onigenc_single_byte_code_to_mbc@Base 3.2.0
 onigenc_single_byte_code_to_mbclen@Base 3.2.0
 onigenc_single_byte_left_adjust_char_head@Base 3.2.0
 onigenc_single_byte_mbc_enc_len@Base 3.2.0
 onigenc_single_byte_mbc_to_code@Base 3.2.0
 onigenc_step@Base 3.2.0
 onigenc_step_back@Base 3.2.0
 onigenc_str_bytelen_null@Base 3.2.0
 onigenc_strlen@Base 3.2.0
 onigenc_strlen_null@Base 3.2.0
 onigenc_unicode_apply_all_case_fold@Base 3.2.0
 onigenc_unicode_case_map@Base 3.2.0
 onigenc_unicode_ctype_code_range@Base 3.2.0
 onigenc_unicode_get_case_fold_codes_by_str@Base 3.2.0
 onigenc_unicode_is_code_ctype@Base 3.2.0
 onigenc_unicode_mbc_case_fold@Base 3.2.0
 onigenc_unicode_property_name_to_ctype@Base 3.2.0
 onigenc_utf16_32_get_ctype_code_range@Base 3.2.0
 onigenc_with_ascii_strncmp@Base 3.2.0
 onigenc_with_ascii_strnicmp@Base 3.2.0
 rb_Array@Base 3.2.0
 rb_Complex@Base 3.2.0
 rb_Float@Base 3.2.0
 rb_Hash@Base 3.2.0
 rb_Integer@Base 3.2.0
 rb_Rational@Base 3.2.0
 rb_String@Base 3.2.0
 rb_absint_numwords@Base 3.2.0
 rb_absint_singlebit_p@Base 3.2.0
 rb_absint_size@Base 3.2.0
 rb_add_event_hook2@Base 3.2.0
 rb_add_event_hook@Base 3.2.0
 rb_add_method_iseq@Base 3.2.0
 rb_alias@Base 3.2.0
 rb_alias_variable@Base 3.2.0
 rb_alloc_tmp_buffer@Base 3.2.0
 rb_alloc_tmp_buffer_with_count@Base 3.2.0
 rb_any_to_s@Base 3.2.0
 rb_apply@Base 3.2.0
 rb_argv0@Base 3.2.0
 rb_arith_seq_new@Base 3.2.0
 rb_arithmetic_sequence_beg_len_step@Base 3.2.0~preview2
 rb_arithmetic_sequence_extract@Base 3.2.0
 rb_ary_aref1@Base 3.2.0
 rb_ary_aref@Base 3.2.0
 rb_ary_assoc@Base 3.2.0
 rb_ary_behead@Base 3.2.0
 rb_ary_cat@Base 3.2.0
 rb_ary_clear@Base 3.2.0
 rb_ary_cmp@Base 3.2.0
 rb_ary_concat@Base 3.2.0
 rb_ary_delete@Base 3.2.0
 rb_ary_delete_at@Base 3.2.0
 rb_ary_detransient@Base 3.2.0
 rb_ary_dup@Base 3.2.0
 rb_ary_each@Base 3.2.0
 rb_ary_entry@Base 3.2.0
 rb_ary_free@Base 3.2.0
 rb_ary_freeze@Base 3.2.0
 rb_ary_hidden_new@Base 3.2.0
 rb_ary_includes@Base 3.2.0
 rb_ary_join@Base 3.2.0
 rb_ary_memsize@Base 3.2.0
 rb_ary_modify@Base 3.2.0
 rb_ary_new@Base 3.2.0
 rb_ary_new_capa@Base 3.2.0
 rb_ary_new_from_args@Base 3.2.0
 rb_ary_new_from_values@Base 3.2.0
 rb_ary_plus@Base 3.2.0
 rb_ary_pop@Base 3.2.0
 rb_ary_ptr_use_end@Base 3.2.0
 rb_ary_ptr_use_start@Base 3.2.0
 rb_ary_push@Base 3.2.0
 rb_ary_rassoc@Base 3.2.0
 rb_ary_replace@Base 3.2.0
 rb_ary_resize@Base 3.2.0
 rb_ary_resurrect@Base 3.2.0
 rb_ary_reverse@Base 3.2.0
 rb_ary_rotate@Base 3.2.0
 rb_ary_shared_with_p@Base 3.2.0
 rb_ary_shift@Base 3.2.0
 rb_ary_sort@Base 3.2.0
 rb_ary_sort_bang@Base 3.2.0
 rb_ary_store@Base 3.2.0
 rb_ary_subseq@Base 3.2.0
 rb_ary_tmp_new_from_values@Base 3.2.0
 rb_ary_to_ary@Base 3.2.0
 rb_ary_to_s@Base 3.2.0
 rb_ary_unshift@Base 3.2.0
 rb_ascii8bit_encindex@Base 3.2.0
 rb_ascii8bit_encoding@Base 3.2.0
 rb_assert_failure@Base 3.2.0
 rb_assoc_new@Base 3.2.0
 rb_ast_add_mark_object@Base 3.2.0
 rb_ast_delete_node@Base 3.2.0
 rb_ast_dispose@Base 3.2.0
 rb_ast_free@Base 3.2.0
 rb_ast_mark@Base 3.2.0
 rb_ast_memsize@Base 3.2.0
 rb_ast_new@Base 3.2.0
 rb_ast_new_local_table@Base 3.2.0
 rb_ast_newnode@Base 3.2.0
 rb_ast_node_type_change@Base 3.2.0
 rb_ast_resize_latest_local_table@Base 3.2.0
 rb_ast_set_tokens@Base 3.2.0
 rb_ast_tokens@Base 3.2.0
 rb_ast_update_references@Base 3.2.0
 rb_attr@Base 3.2.0
 rb_attr_get@Base 3.2.0
 rb_autoload@Base 3.2.0
 rb_autoload_load@Base 3.2.0
 rb_autoload_p@Base 3.2.0
 rb_autoloading_value@Base 3.2.0
 rb_backref_get@Base 3.2.0
 rb_backref_set@Base 3.2.0
 rb_backtrace@Base 3.2.0
 rb_backtrace_use_iseq_first_lineno_for_last_location@Base 3.2.0
 rb_big2dbl@Base 3.2.0
 rb_big2ll@Base 3.2.0
 rb_big2long@Base 3.2.0
 rb_big2str@Base 3.2.0
 rb_big2str_generic@Base 3.2.0
 rb_big2str_gmp@Base 3.2.0
 rb_big2str_poweroftwo@Base 3.2.0
 rb_big2ull@Base 3.2.0
 rb_big2ulong@Base 3.2.0
 rb_big_2comp@Base 3.2.0
 rb_big_and@Base 3.2.0
 rb_big_clone@Base 3.2.0
 rb_big_cmp@Base 3.2.0
 rb_big_div@Base 3.2.0
 rb_big_divmod@Base 3.2.0
 rb_big_divrem_gmp@Base 3.2.0
 rb_big_divrem_normal@Base 3.2.0
 rb_big_eq@Base 3.2.0
 rb_big_eql@Base 3.2.0
 rb_big_idiv@Base 3.2.0
 rb_big_lshift@Base 3.2.0
 rb_big_minus@Base 3.2.0
 rb_big_modulo@Base 3.2.0
 rb_big_mul@Base 3.2.0
 rb_big_mul_balance@Base 3.2.0
 rb_big_mul_gmp@Base 3.2.0
 rb_big_mul_karatsuba@Base 3.2.0
 rb_big_mul_normal@Base 3.2.0
 rb_big_mul_toom3@Base 3.2.0
 rb_big_new@Base 3.2.0
 rb_big_norm@Base 3.2.0
 rb_big_or@Base 3.2.0
 rb_big_pack@Base 3.2.0
 rb_big_plus@Base 3.2.0
 rb_big_pow@Base 3.2.0
 rb_big_resize@Base 3.2.0
 rb_big_rshift@Base 3.2.0
 rb_big_sign@Base 3.2.0
 rb_big_sq_fast@Base 3.2.0
 rb_big_unpack@Base 3.2.0
 rb_big_xor@Base 3.2.0
 rb_bigzero_p@Base 3.2.0
 rb_binding_new@Base 3.2.0
 rb_block_call@Base 3.2.0
 rb_block_call_kw@Base 3.2.0
 rb_block_given_p@Base 3.2.0
 rb_block_lambda@Base 3.2.0
 rb_block_param_proxy@Base 3.2.0
 rb_block_proc@Base 3.2.0
 rb_bug@Base 3.2.0
 rb_bug_errno@Base 3.2.0
 rb_bug_reporter_add@Base 3.2.0
 rb_cArray@Base 3.2.0
 rb_cBasicObject@Base 3.2.0
 rb_cBinding@Base 3.2.0
 rb_cClass@Base 3.2.0
 rb_cComplex@Base 3.2.0
 rb_cDir@Base 3.2.0
 rb_cEncoding@Base 3.2.0
 rb_cEnumerator@Base 3.2.0
 rb_cFalseClass@Base 3.2.0
 rb_cFile@Base 3.2.0
 rb_cFloat@Base 3.2.0
 rb_cHash@Base 3.2.0
 rb_cIO@Base 3.2.0
 rb_cIOBuffer@Base 3.2.0
 rb_cISeq@Base 3.2.0
 rb_cInteger@Base 3.2.0
 rb_cMatch@Base 3.2.0
 rb_cMethod@Base 3.2.0
 rb_cModule@Base 3.2.0
 rb_cNameErrorMesg@Base 3.2.0
 rb_cNilClass@Base 3.2.0
 rb_cNumeric@Base 3.2.0
 rb_cObject@Base 3.2.0
 rb_cProc@Base 3.2.0
 rb_cRactor@Base 3.2.0~preview2
 rb_cRandom@Base 3.2.0
 rb_cRange@Base 3.2.0
 rb_cRational@Base 3.2.0
 rb_cRefinement@Base 3.2.0
 rb_cRegexp@Base 3.2.0
 rb_cRubyVM@Base 3.2.0
 rb_cStat@Base 3.2.0
 rb_cString@Base 3.2.0
 rb_cStruct@Base 3.2.0
 rb_cSymbol@Base 3.2.0
 rb_cThread@Base 3.2.0
 rb_cTime@Base 3.2.0
 rb_cTrueClass@Base 3.2.0
 rb_cUnboundMethod@Base 3.2.0
 rb_call_super@Base 3.2.0
 rb_call_super_kw@Base 3.2.0
 rb_callable_method_entry@Base 3.2.0
 rb_callable_method_entry_with_refinements@Base 3.2.0
 rb_callable_method_entry_without_refinements@Base 3.2.0
 rb_catch@Base 3.2.0
 rb_catch_obj@Base 3.2.0
 rb_category_compile_warn@Base 3.2.0~rc1
 rb_category_warn@Base 3.2.0~preview2
 rb_category_warning@Base 3.2.0~preview2
 rb_char_to_option_kcode@Base 3.2.0
 rb_check_array_type@Base 3.2.0
 rb_check_convert_type@Base 3.2.0
 rb_check_convert_type_with_id@Base 3.2.0
 rb_check_copyable@Base 3.2.0
 rb_check_frozen@Base 3.2.0
 rb_check_funcall@Base 3.2.0
 rb_check_funcall_kw@Base 3.2.0
 rb_check_hash_type@Base 3.2.0
 rb_check_id@Base 3.2.0
 rb_check_id_cstr@Base 3.2.0
 rb_check_inheritable@Base 3.2.0
 rb_check_string_type@Base 3.2.0
 rb_check_symbol@Base 3.2.0
 rb_check_symbol_cstr@Base 3.2.0
 rb_check_to_array@Base 3.2.0
 rb_check_to_float@Base 3.2.0
 rb_check_to_int@Base 3.2.0
 rb_check_to_integer@Base 3.2.0
 rb_check_type@Base 3.2.0
 rb_check_typeddata@Base 3.2.0
 rb_class2name@Base 3.2.0
 rb_class_allocate_instance@Base 3.2.0
 rb_class_attached_object@Base 3.2.0
 rb_class_get_superclass@Base 3.2.0
 rb_class_inherited@Base 3.2.0
 rb_class_inherited_p@Base 3.2.0
 rb_class_instance_methods@Base 3.2.0
 rb_class_ivar_set@Base 3.2.0
 rb_class_name@Base 3.2.0
 rb_class_new@Base 3.2.0
 rb_class_new_instance@Base 3.2.0
 rb_class_new_instance_kw@Base 3.2.0
 rb_class_new_instance_pass_kw@Base 3.2.0
 rb_class_path@Base 3.2.0
 rb_class_path_cached@Base 3.2.0
 rb_class_private_instance_methods@Base 3.2.0
 rb_class_protected_instance_methods@Base 3.2.0
 rb_class_public_instance_methods@Base 3.2.0
 rb_class_real@Base 3.2.0
 rb_class_subclasses@Base 3.2.0
 rb_class_superclass@Base 3.2.0
 rb_clear_constant_cache_for_id@Base 3.2.0
 rb_clear_coverages@Base 3.2.0
 rb_cloexec_dup2@Base 3.2.0
 rb_cloexec_dup@Base 3.2.0
 rb_cloexec_fcntl_dupfd@Base 3.2.0
 rb_cloexec_open@Base 3.2.0
 rb_cloexec_pipe@Base 3.2.0
 rb_close_before_exec@Base 3.2.0
 rb_cmperr@Base 3.2.0
 rb_cmpint@Base 3.2.0
 rb_compile_warn@Base 3.2.0
 rb_compile_warning@Base 3.2.0
 rb_complex_abs@Base 3.2.0
 rb_complex_arg@Base 3.2.0
 rb_complex_conjugate@Base 3.2.0
 rb_complex_div@Base 3.2.0
 rb_complex_imag@Base 3.2.0
 rb_complex_minus@Base 3.2.0
 rb_complex_mul@Base 3.2.0
 rb_complex_new@Base 3.2.0
 rb_complex_new_polar@Base 3.2.0
 rb_complex_plus@Base 3.2.0
 rb_complex_polar@Base 3.2.0
 rb_complex_pow@Base 3.2.0
 rb_complex_raw@Base 3.2.0
 rb_complex_real@Base 3.2.0
 rb_complex_uminus@Base 3.2.0
 rb_const_defined@Base 3.2.0
 rb_const_defined_at@Base 3.2.0
 rb_const_defined_from@Base 3.2.0
 rb_const_get@Base 3.2.0
 rb_const_get_at@Base 3.2.0
 rb_const_get_from@Base 3.2.0
 rb_const_list@Base 3.2.0
 rb_const_lookup@Base 3.2.0
 rb_const_missing@Base 3.2.0
 rb_const_remove@Base 3.2.0
 rb_const_set@Base 3.2.0
 rb_const_source_location_at@Base 3.2.0
 rb_const_warn_if_deprecated@Base 3.2.0
 rb_convert_type@Base 3.2.0
 rb_convert_type_with_id@Base 3.2.0
 rb_copy_generic_ivar@Base 3.2.0
 rb_cstr2inum@Base 3.2.0
 rb_cstr_to_dbl@Base 3.2.0
 rb_cstr_to_inum@Base 3.2.0
 rb_current_receiver@Base 3.2.0
 rb_cv_get@Base 3.2.0
 rb_cv_set@Base 3.2.0
 rb_cvar_defined@Base 3.2.0
 rb_cvar_find@Base 3.2.0
 rb_cvar_get@Base 3.2.0
 rb_cvar_set@Base 3.2.0
 rb_data_object_wrap@Base 3.2.0
 rb_data_object_zalloc@Base 3.2.0
 rb_data_typed_object_wrap@Base 3.2.0
 rb_data_typed_object_zalloc@Base 3.2.0
 rb_dbl2big@Base 3.2.0
 rb_dbl_cmp@Base 3.2.0
 rb_dbl_complex_new@Base 3.2.0
 rb_debug_inspector_backtrace_locations@Base 3.2.0
 rb_debug_inspector_current_depth@Base 3.2.0
 rb_debug_inspector_frame_binding_get@Base 3.2.0
 rb_debug_inspector_frame_class_get@Base 3.2.0
 rb_debug_inspector_frame_depth@Base 3.2.0
 rb_debug_inspector_frame_iseq_get@Base 3.2.0
 rb_debug_inspector_frame_self_get@Base 3.2.0
 rb_debug_inspector_open@Base 3.2.0
 rb_debug_rstring_null_ptr@Base 3.2.0
 rb_declare_transcoder@Base 3.2.0
 rb_default_external_encoding@Base 3.2.0
 rb_default_internal_encoding@Base 3.2.0
 rb_default_rs@Base 3.2.0
 rb_define_alias@Base 3.2.0
 rb_define_alloc_func@Base 3.2.0
 rb_define_attr@Base 3.2.0
 rb_define_class@Base 3.2.0
 rb_define_class_id@Base 3.2.0
 rb_define_class_id_under@Base 3.2.0
 rb_define_class_under@Base 3.2.0
 rb_define_class_variable@Base 3.2.0
 rb_define_const@Base 3.2.0
 rb_define_dummy_encoding@Base 3.2.0
 rb_define_finalizer@Base 3.2.0
 rb_define_global_const@Base 3.2.0
 rb_define_global_function@Base 3.2.0
 rb_define_hooked_variable@Base 3.2.0
 rb_define_method@Base 3.2.0
 rb_define_method_id@Base 3.2.0
 rb_define_module@Base 3.2.0
 rb_define_module_function@Base 3.2.0
 rb_define_module_id@Base 3.2.0
 rb_define_module_id_under@Base 3.2.0
 rb_define_module_under@Base 3.2.0
 rb_define_private_method@Base 3.2.0
 rb_define_protected_method@Base 3.2.0
 rb_define_readonly_variable@Base 3.2.0
 rb_define_singleton_method@Base 3.2.0
 rb_define_variable@Base 3.2.0
 rb_define_virtual_variable@Base 3.2.0
 rb_deprecate_constant@Base 3.2.0
 rb_detach_process@Base 3.2.0
 rb_dir_getwd@Base 3.2.0
 rb_dtrace_setup@Base 3.2.0
 rb_during_gc@Base 3.2.0
 rb_eArgError@Base 3.2.0
 rb_eEOFError@Base 3.2.0
 rb_eEncCompatError@Base 3.2.0
 rb_eEncodingError@Base 3.2.0
 rb_eException@Base 3.2.0
 rb_eFatal@Base 3.2.0
 rb_eFloatDomainError@Base 3.2.0
 rb_eFrozenError@Base 3.2.0
 rb_eIOError@Base 3.2.0
 rb_eIOTimeoutError@Base 3.2.0
 rb_eIndexError@Base 3.2.0
 rb_eInterrupt@Base 3.2.0
 rb_eKeyError@Base 3.2.0
 rb_eLoadError@Base 3.2.0
 rb_eLocalJumpError@Base 3.2.0
 rb_eMathDomainError@Base 3.2.0
 rb_eNameError@Base 3.2.0
 rb_eNoMatchingPatternError@Base 3.2.0
 rb_eNoMatchingPatternKeyError@Base 3.2.0
 rb_eNoMemError@Base 3.2.0
 rb_eNoMethodError@Base 3.2.0
 rb_eNotImpError@Base 3.2.0
 rb_eRactorIsolationError@Base 3.2.0
 rb_eRactorUnsafeError@Base 3.2.0~preview2
 rb_eRangeError@Base 3.2.0
 rb_eRegexpError@Base 3.2.0
 rb_eRuntimeError@Base 3.2.0
 rb_eScriptError@Base 3.2.0
 rb_eSecurityError@Base 3.2.0
 rb_eSignal@Base 3.2.0
 rb_eStandardError@Base 3.2.0
 rb_eStopIteration@Base 3.2.0
 rb_eSyntaxError@Base 3.2.0
 rb_eSysStackError@Base 3.2.0
 rb_eSystemCallError@Base 3.2.0
 rb_eSystemExit@Base 3.2.0
 rb_eThreadError@Base 3.2.0
 rb_eTypeError@Base 3.2.0
 rb_eZeroDivError@Base 3.2.0
 rb_each@Base 3.2.0
 rb_ec_ary_new_from_values@Base 3.2.0~preview2
 rb_ec_backtrace_object@Base 3.2.0
 rb_ec_obj_respond_to@Base 3.2.0
 rb_ec_stack_check@Base 3.2.0
 rb_ec_str_resurrect@Base 3.2.0~preview2
 rb_ec_wb_protected_newobj_of@Base 3.2.0~preview2
 rb_econv_append@Base 3.2.0
 rb_econv_asciicompat_encoding@Base 3.2.0
 rb_econv_binmode@Base 3.2.0
 rb_econv_check_error@Base 3.2.0
 rb_econv_close@Base 3.2.0
 rb_econv_convert@Base 3.2.0
 rb_econv_decorate_at_first@Base 3.2.0
 rb_econv_decorate_at_last@Base 3.2.0
 rb_econv_encoding_to_insert_output@Base 3.2.0
 rb_econv_has_convpath_p@Base 3.2.0
 rb_econv_insert_output@Base 3.2.0
 rb_econv_make_exception@Base 3.2.0
 rb_econv_open@Base 3.2.0
 rb_econv_open_exc@Base 3.2.0
 rb_econv_open_opts@Base 3.2.0
 rb_econv_prepare_options@Base 3.2.0
 rb_econv_prepare_opts@Base 3.2.0
 rb_econv_putback@Base 3.2.0
 rb_econv_putbackable@Base 3.2.0
 rb_econv_set_replacement@Base 3.2.0
 rb_econv_str_append@Base 3.2.0
 rb_econv_str_convert@Base 3.2.0
 rb_econv_substr_append@Base 3.2.0
 rb_econv_substr_convert@Base 3.2.0
 rb_enc_alias@Base 3.2.0
 rb_enc_ascget@Base 3.2.0
 rb_enc_associate@Base 3.2.0
 rb_enc_associate_index@Base 3.2.0
 rb_enc_capable@Base 3.2.0
 rb_enc_check@Base 3.2.0
 rb_enc_codelen@Base 3.2.0
 rb_enc_codepoint_len@Base 3.2.0
 rb_enc_compatible@Base 3.2.0
 rb_enc_copy@Base 3.2.0
 rb_enc_default_external@Base 3.2.0
 rb_enc_default_internal@Base 3.2.0
 rb_enc_dummy_p@Base 3.2.0
 rb_enc_fast_mbclen@Base 3.2.0
 rb_enc_find@Base 3.2.0
 rb_enc_find_index@Base 3.2.0
 rb_enc_from_encoding@Base 3.2.0
 rb_enc_from_index@Base 3.2.0
 rb_enc_get@Base 3.2.0
 rb_enc_get_index@Base 3.2.0
 rb_enc_interned_str@Base 3.2.0~preview2
 rb_enc_interned_str_cstr@Base 3.2.0~preview2
 rb_enc_mbclen@Base 3.2.0
 rb_enc_nth@Base 3.2.0
 rb_enc_path_end@Base 3.2.0
 rb_enc_path_last_separator@Base 3.2.0
 rb_enc_path_next@Base 3.2.0
 rb_enc_path_skip_prefix@Base 3.2.0
 rb_enc_precise_mbclen@Base 3.2.0
 rb_enc_raise@Base 3.2.0
 rb_enc_reg_new@Base 3.2.0
 rb_enc_register@Base 3.2.0
 rb_enc_replicate@Base 3.2.0
 rb_enc_set_base@Base 3.2.0
 rb_enc_set_default_external@Base 3.2.0
 rb_enc_set_default_internal@Base 3.2.0
 rb_enc_set_dummy@Base 3.2.0
 rb_enc_set_index@Base 3.2.0
 rb_enc_sprintf@Base 3.2.0
 rb_enc_str_asciionly_p@Base 3.2.0
 rb_enc_str_buf_cat@Base 3.2.0
 rb_enc_str_coderange@Base 3.2.0
 rb_enc_str_new@Base 3.2.0
 rb_enc_str_new_cstr@Base 3.2.0
 rb_enc_str_new_static@Base 3.2.0
 rb_enc_strlen@Base 3.2.0
 rb_enc_symname2_p@Base 3.2.0
 rb_enc_symname_p@Base 3.2.0
 rb_enc_to_index@Base 3.2.0
 rb_enc_tolower@Base 3.2.0
 rb_enc_toupper@Base 3.2.0
 rb_enc_uint_chr@Base 3.2.0
 rb_enc_unicode_p@Base 3.2.0
 rb_enc_vsprintf@Base 3.2.0
 rb_encdb_alias@Base 3.2.0
 rb_encdb_declare@Base 3.2.0
 rb_encdb_dummy@Base 3.2.0
 rb_encdb_replicate@Base 3.2.0
 rb_ensure@Base 3.2.0
 rb_ensure_generic_iv_list_size@Base 3.2.0
 rb_ensure_iv_list_size@Base 3.2.0
 rb_enum_values_pack@Base 3.2.0
 rb_enumeratorize@Base 3.2.0
 rb_enumeratorize_with_size@Base 3.2.0
 rb_enumeratorize_with_size_kw@Base 3.2.0
 rb_env_clear@Base 3.2.0
 rb_eof_error@Base 3.2.0
 rb_eql@Base 3.2.0
 rb_equal@Base 3.2.0
 rb_errinfo@Base 3.2.0
 rb_error_arity@Base 3.2.0
 rb_error_frozen@Base 3.2.0
 rb_error_frozen_object@Base 3.2.0
 rb_estimate_iv_count@Base 3.2.0
 rb_eval_cmd_kw@Base 3.2.0
 rb_eval_string@Base 3.2.0
 rb_eval_string_protect@Base 3.2.0
 rb_eval_string_wrap@Base 3.2.0
 rb_exc_fatal@Base 3.2.0
 rb_exc_new@Base 3.2.0
 rb_exc_new_cstr@Base 3.2.0
 rb_exc_new_str@Base 3.2.0
 rb_exc_raise@Base 3.2.0
 rb_exc_set_backtrace@Base 3.2.0
 rb_exec_async_signal_safe@Base 3.2.0
 rb_exec_event_hooks@Base 3.2.0
 rb_exec_recursive@Base 3.2.0
 rb_exec_recursive_outer@Base 3.2.0
 rb_exec_recursive_paired@Base 3.2.0
 rb_exec_recursive_paired_outer@Base 3.2.0
 rb_execarg_addopt@Base 3.2.0
 rb_execarg_extract_options@Base 3.2.0
 rb_execarg_get@Base 3.2.0
 rb_execarg_new@Base 3.2.0
 rb_execarg_parent_end@Base 3.2.0
 rb_execarg_parent_start@Base 3.2.0
 rb_execarg_run_options@Base 3.2.0
 rb_execarg_setenv@Base 3.2.0
 rb_exit@Base 3.2.0
 rb_ext_ractor_safe@Base 3.2.0~preview2
 rb_extend_object@Base 3.2.0
 rb_external_str_new@Base 3.2.0
 rb_external_str_new_cstr@Base 3.2.0
 rb_external_str_new_with_enc@Base 3.2.0
 rb_extract_keywords@Base 3.2.0
 rb_f_abort@Base 3.2.0
 rb_f_exec@Base 3.2.0
 rb_f_exit@Base 3.2.0
 rb_f_global_variables@Base 3.2.0
 rb_f_kill@Base 3.2.0
 rb_f_notimplement@Base 3.2.0
 rb_f_require@Base 3.2.0
 rb_f_sprintf@Base 3.2.0
 rb_f_trace_var@Base 3.2.0
 rb_f_untrace_var@Base 3.2.0
 rb_false@Base 3.2.0
 rb_false_to_s@Base 3.2.0
 rb_fatal@Base 3.2.0
 rb_fd_clr@Base 3.2.0
 rb_fd_copy@Base 3.2.0
 rb_fd_dup@Base 3.2.0
 rb_fd_fix_cloexec@Base 3.2.0
 rb_fd_init@Base 3.2.0
 rb_fd_isset@Base 3.2.0
 rb_fd_select@Base 3.2.0
 rb_fd_set@Base 3.2.0
 rb_fd_term@Base 3.2.0
 rb_fd_zero@Base 3.2.0
 rb_fdopen@Base 3.2.0
 rb_feature_provided@Base 3.2.0
 rb_fiber_alive_p@Base 3.2.0
 rb_fiber_current@Base 3.2.0
 rb_fiber_new@Base 3.2.0
 rb_fiber_new_storage@Base 3.2.0
 rb_fiber_raise@Base 3.2.0
 rb_fiber_resume@Base 3.2.0
 rb_fiber_resume_kw@Base 3.2.0
 rb_fiber_scheduler_address_resolve@Base 3.2.0
 rb_fiber_scheduler_block@Base 3.2.0
 rb_fiber_scheduler_close@Base 3.2.0
 rb_fiber_scheduler_current@Base 3.2.0
 rb_fiber_scheduler_current_for_thread@Base 3.2.0
 rb_fiber_scheduler_fiber@Base 3.2.0
 rb_fiber_scheduler_get@Base 3.2.0
 rb_fiber_scheduler_io_close@Base 3.2.0
 rb_fiber_scheduler_io_pread@Base 3.2.0
 rb_fiber_scheduler_io_pwrite@Base 3.2.0
 rb_fiber_scheduler_io_read@Base 3.2.0
 rb_fiber_scheduler_io_read_memory@Base 3.2.0
 rb_fiber_scheduler_io_select@Base 3.2.0
 rb_fiber_scheduler_io_selectv@Base 3.2.0
 rb_fiber_scheduler_io_wait@Base 3.2.0
 rb_fiber_scheduler_io_wait_readable@Base 3.2.0
 rb_fiber_scheduler_io_wait_writable@Base 3.2.0
 rb_fiber_scheduler_io_write@Base 3.2.0
 rb_fiber_scheduler_io_write_memory@Base 3.2.0
 rb_fiber_scheduler_kernel_sleep@Base 3.2.0
 rb_fiber_scheduler_kernel_sleepv@Base 3.2.0
 rb_fiber_scheduler_make_timeout@Base 3.2.0
 rb_fiber_scheduler_process_wait@Base 3.2.0
 rb_fiber_scheduler_set@Base 3.2.0
 rb_fiber_scheduler_unblock@Base 3.2.0
 rb_fiber_transfer@Base 3.2.0
 rb_fiber_transfer_kw@Base 3.2.0
 rb_fiber_yield@Base 3.2.0
 rb_fiber_yield_kw@Base 3.2.0
 rb_file_absolute_path@Base 3.2.0
 rb_file_directory_p@Base 3.2.0
 rb_file_dirname@Base 3.2.0
 rb_file_expand_path@Base 3.2.0
 rb_file_open@Base 3.2.0
 rb_file_open_str@Base 3.2.0
 rb_file_s_absolute_path@Base 3.2.0
 rb_file_s_birthtime@Base 3.2.0
 rb_file_s_expand_path@Base 3.2.0
 rb_file_size@Base 3.2.0
 rb_filesystem_encindex@Base 3.2.0
 rb_filesystem_encoding@Base 3.2.0
 rb_filesystem_str_new@Base 3.2.0
 rb_filesystem_str_new_cstr@Base 3.2.0
 rb_find_defined_class_by_owner@Base 3.2.0
 rb_find_encoding@Base 3.2.0
 rb_find_file@Base 3.2.0
 rb_find_file_ext@Base 3.2.0
 rb_fix2int@Base 3.2.0
 rb_fix2short@Base 3.2.0
 rb_fix2str@Base 3.2.0
 rb_fix2uint@Base 3.2.0
 rb_fix2ushort@Base 3.2.0
 rb_fix_aref@Base 3.2.0
 rb_fix_to_s@Base 3.2.0
 rb_flo_div_flo@Base 3.2.0
 rb_float_abs@Base 3.2.0
 rb_float_cmp@Base 3.2.0
 rb_float_eql@Base 3.2.0
 rb_float_equal@Base 3.2.0
 rb_float_new@Base 3.2.0
 rb_float_new_in_heap@Base 3.2.0
 rb_float_uminus@Base 3.2.0
 rb_float_value@Base 3.2.0
 rb_flt_rationalize@Base 3.2.0
 rb_flt_rationalize_with_prec@Base 3.2.0
 rb_fork_async_signal_safe@Base 3.2.0
 rb_frame_callee@Base 3.2.0
 rb_frame_method_id_and_class@Base 3.2.0
 rb_frame_this_func@Base 3.2.0
 rb_free_generic_ivar@Base 3.2.0
 rb_free_tmp_buffer@Base 3.2.0
 rb_freeze_singleton_class@Base 3.2.0
 rb_frozen_error_raise@Base 3.2.0
 rb_fs@Base 3.2.0
 rb_fstring@Base 3.2.0
 rb_fstring_new@Base 3.2.0
 rb_func_lambda_new@Base 3.2.0
 rb_func_proc_new@Base 3.2.0
 rb_funcall@Base 3.2.0
 rb_funcall_passing_block@Base 3.2.0
 rb_funcall_passing_block_kw@Base 3.2.0
 rb_funcall_with_block@Base 3.2.0
 rb_funcall_with_block_kw@Base 3.2.0
 rb_funcallv@Base 3.2.0
 rb_funcallv_kw@Base 3.2.0
 rb_funcallv_public@Base 3.2.0
 rb_funcallv_public_kw@Base 3.2.0
 rb_gc@Base 3.2.0
 rb_gc_adjust_memory_usage@Base 3.2.0
 rb_gc_copy_finalizer@Base 3.2.0
 rb_gc_count@Base 3.2.0
 rb_gc_disable@Base 3.2.0
 rb_gc_disable_no_rest@Base 3.2.4-0nkmi1~noble
 rb_gc_enable@Base 3.2.0
 rb_gc_for_fd@Base 3.2.0
 rb_gc_force_recycle@Base 3.2.0
 rb_gc_latest_gc_info@Base 3.2.0
 rb_gc_location@Base 3.2.0
 rb_gc_mark@Base 3.2.0
 rb_gc_mark_locations@Base 3.2.0
 rb_gc_mark_maybe@Base 3.2.0
 rb_gc_mark_movable@Base 3.2.0
 rb_gc_mark_values@Base 3.2.0
 rb_gc_mark_vm_stack_values@Base 3.2.0
 rb_gc_obj_slot_size@Base 3.2.0
 rb_gc_register_address@Base 3.2.0
 rb_gc_register_mark_object@Base 3.2.0
 rb_gc_start@Base 3.2.0
 rb_gc_stat@Base 3.2.0
 rb_gc_unregister_address@Base 3.2.0
 rb_gc_update_tbl_refs@Base 3.2.0
 rb_gc_verify_internal_consistency@Base 3.2.0
 rb_gc_writebarrier@Base 3.2.0
 rb_gc_writebarrier_remember@Base 3.2.0
 rb_gc_writebarrier_unprotect@Base 3.2.0
 rb_gcd@Base 3.2.0
 rb_gcd_gmp@Base 3.2.0
 rb_gcd_normal@Base 3.2.0
 rb_gen_ivtbl_get@Base 3.2.0
 rb_generic_ivar_memsize@Base 3.2.0
 rb_genrand_int32@Base 3.2.0
 rb_genrand_real@Base 3.2.0
 rb_genrand_ulong_limited@Base 3.2.0
 rb_get_alloc_func@Base 3.2.0
 rb_get_argv@Base 3.2.0
 rb_get_coverages@Base 3.2.0
 rb_get_freeze_opt@Base 3.2.0
 rb_get_kwargs@Base 3.2.0
 rb_get_path@Base 3.2.0
 rb_get_path_no_checksafe@Base 3.2.0
 rb_get_values_at@Base 3.2.0
 rb_gets@Base 3.2.0
 rb_glob@Base 3.2.0
 rb_global_variable@Base 3.2.0
 rb_grantpt@Base 3.2.0
 rb_grow_iv_list@Base 3.2.0
 rb_gv_get@Base 3.2.0
 rb_gv_set@Base 3.2.0
 rb_gvar_defined@Base 3.2.0
 rb_gvar_get@Base 3.2.0
 rb_gvar_readonly_setter@Base 3.2.0
 rb_gvar_set@Base 3.2.0
 rb_gvar_undef_getter@Base 3.2.0
 rb_gvar_undef_marker@Base 3.2.0
 rb_gvar_undef_setter@Base 3.2.0
 rb_gvar_val_getter@Base 3.2.0
 rb_gvar_val_marker@Base 3.2.0
 rb_gvar_val_setter@Base 3.2.0
 rb_gvar_var_getter@Base 3.2.0
 rb_gvar_var_marker@Base 3.2.0
 rb_gvar_var_setter@Base 3.2.0
 rb_hash@Base 3.2.0
 rb_hash_aref@Base 3.2.0
 rb_hash_aset@Base 3.2.0
 rb_hash_bulk_insert@Base 3.2.0
 rb_hash_bulk_insert_into_st_table@Base 3.2.0
 rb_hash_clear@Base 3.2.0
 rb_hash_compare_by_id_p@Base 3.2.0
 rb_hash_delete@Base 3.2.0
 rb_hash_delete_entry@Base 3.2.0
 rb_hash_delete_if@Base 3.2.0
 rb_hash_dup@Base 3.2.0
 rb_hash_fetch@Base 3.2.0
 rb_hash_foreach@Base 3.2.0
 rb_hash_freeze@Base 3.2.0
 rb_hash_has_key@Base 3.2.0
 rb_hash_keys@Base 3.2.0
 rb_hash_lookup2@Base 3.2.0
 rb_hash_lookup@Base 3.2.0
 rb_hash_new@Base 3.2.0
 rb_hash_new_capa@Base 3.2.0
 rb_hash_new_with_size@Base 3.2.0
 rb_hash_resurrect@Base 3.2.0
 rb_hash_set_ifnone@Base 3.2.0
 rb_hash_size@Base 3.2.0
 rb_hash_size_num@Base 3.2.0
 rb_hash_start@Base 3.2.0
 rb_hash_stlike_foreach@Base 3.2.0
 rb_hash_stlike_lookup@Base 3.2.0
 rb_hash_tbl@Base 3.2.0
 rb_hash_tbl_raw@Base 3.2.0
 rb_hash_update_by@Base 3.2.0
 rb_id2name@Base 3.2.0
 rb_id2str@Base 3.2.0
 rb_id2sym@Base 3.2.0
 rb_id_attrset@Base 3.2.0
 rb_id_quote_unprintable@Base 3.2.0
 rb_id_table_create@Base 3.2.0
 rb_id_table_insert@Base 3.2.0
 rb_id_table_lookup@Base 3.2.0
 rb_id_table_size@Base 3.2.0
 rb_ident_hash_new@Base 3.2.0
 rb_imemo_name@Base 3.2.0
 rb_imemo_new@Base 3.2.0
 rb_include_module@Base 3.2.0
 rb_inspect@Base 3.2.0
 rb_int128t2big@Base 3.2.0~preview2
 rb_int2big@Base 3.2.0
 rb_int2inum@Base 3.2.0
 rb_int_abs@Base 3.2.0
 rb_int_bit_length@Base 3.2.0
 rb_int_comp@Base 3.2.0
 rb_int_even_p@Base 3.2.0
 rb_int_odd_p@Base 3.2.0
 rb_int_pair_to_real@Base 3.2.0
 rb_int_parse_cstr@Base 3.2.0
 rb_int_positive_pow@Base 3.2.0
 rb_int_size@Base 3.2.0
 rb_int_to_s@Base 3.2.0
 rb_int_uminus@Base 3.2.0
 rb_int_zero_p@Base 3.2.0
 rb_integer_pack@Base 3.2.0
 rb_integer_unpack@Base 3.2.0
 rb_intern2@Base 3.2.0
 rb_intern3@Base 3.2.0
 rb_intern@Base 3.2.0
 rb_intern_str@Base 3.2.0
 rb_internal_thread_add_event_hook@Base 3.2.0
 rb_internal_thread_remove_event_hook@Base 3.2.0
 rb_interned_str@Base 3.2.0~preview2
 rb_interned_str_cstr@Base 3.2.0~preview2
 rb_interrupt@Base 3.2.0
 rb_invalid_str@Base 3.2.0
 rb_io_addstr@Base 3.2.0
 rb_io_ascii8bit_binmode@Base 3.2.0
 rb_io_binmode@Base 3.2.0
 rb_io_buffer_clear@Base 3.2.0
 rb_io_buffer_free@Base 3.2.0
 rb_io_buffer_get_bytes@Base 3.2.0
 rb_io_buffer_get_bytes_for_reading@Base 3.2.0
 rb_io_buffer_get_bytes_for_writing@Base 3.2.0
 rb_io_buffer_lock@Base 3.2.0
 rb_io_buffer_map@Base 3.2.0
 rb_io_buffer_new@Base 3.2.0
 rb_io_buffer_pread@Base 3.2.0
 rb_io_buffer_pwrite@Base 3.2.0
 rb_io_buffer_read@Base 3.2.0
 rb_io_buffer_resize@Base 3.2.0
 rb_io_buffer_transfer@Base 3.2.0
 rb_io_buffer_try_unlock@Base 3.2.0
 rb_io_buffer_unlock@Base 3.2.0
 rb_io_buffer_write@Base 3.2.0
 rb_io_bufwrite@Base 3.2.0
 rb_io_check_byte_readable@Base 3.2.0
 rb_io_check_char_readable@Base 3.2.0
 rb_io_check_closed@Base 3.2.0
 rb_io_check_initialized@Base 3.2.0
 rb_io_check_io@Base 3.2.0
 rb_io_check_readable@Base 3.2.0
 rb_io_check_writable@Base 3.2.0
 rb_io_close@Base 3.2.0
 rb_io_descriptor@Base 3.2.0
 rb_io_eof@Base 3.2.0
 rb_io_extract_encoding_option@Base 3.2.0
 rb_io_extract_modeenc@Base 3.2.0
 rb_io_fdopen@Base 3.2.0
 rb_io_flush@Base 3.2.0
 rb_io_get_io@Base 3.2.0
 rb_io_get_write_io@Base 3.2.0
 rb_io_getbyte@Base 3.2.0
 rb_io_gets@Base 3.2.0
 rb_io_make_open_file@Base 3.2.0
 rb_io_maybe_wait@Base 3.2.0
 rb_io_maybe_wait_readable@Base 3.2.0
 rb_io_maybe_wait_writable@Base 3.2.0
 rb_io_memsize@Base 3.2.0
 rb_io_modestr_fmode@Base 3.2.0
 rb_io_modestr_oflags@Base 3.2.0
 rb_io_oflags_fmode@Base 3.2.0
 rb_io_print@Base 3.2.0
 rb_io_printf@Base 3.2.0
 rb_io_puts@Base 3.2.0
 rb_io_read_check@Base 3.2.0
 rb_io_read_pending@Base 3.2.0
 rb_io_set_nonblock@Base 3.2.0
 rb_io_set_timeout@Base 3.2.0
 rb_io_set_write_io@Base 3.2.0
 rb_io_stdio_file@Base 3.2.0
 rb_io_synchronized@Base 3.2.0
 rb_io_taint_check@Base 3.2.0
 rb_io_timeout@Base 3.2.0
 rb_io_ungetbyte@Base 3.2.0
 rb_io_ungetc@Base 3.2.0
 rb_io_wait@Base 3.2.0
 rb_io_wait_readable@Base 3.2.0
 rb_io_wait_writable@Base 3.2.0
 rb_io_write@Base 3.2.0
 rb_is_absolute_path@Base 3.2.0
 rb_is_attrset_id@Base 3.2.0
 rb_is_class_id@Base 3.2.0
 rb_is_const_id@Base 3.2.0
 rb_is_global_id@Base 3.2.0
 rb_is_instance_id@Base 3.2.0
 rb_is_junk_id@Base 3.2.0
 rb_is_local_id@Base 3.2.0
 rb_iseq_absolute_path@Base 3.2.0
 rb_iseq_base_label@Base 3.2.0
 rb_iseq_build_from_ary@Base 3.2.0
 rb_iseq_code_location@Base 3.2.0
 rb_iseq_compile_callback@Base 3.2.0
 rb_iseq_compile_node@Base 3.2.0
 rb_iseq_constant_body_alloc@Base 3.2.0
 rb_iseq_coverage@Base 3.2.0
 rb_iseq_defined_string@Base 3.2.0
 rb_iseq_disasm@Base 3.2.0
 rb_iseq_disasm_insn@Base 3.2.0
 rb_iseq_eval@Base 3.2.0
 rb_iseq_eval_main@Base 3.2.0
 rb_iseq_event_flags@Base 3.2.0
 rb_iseq_first_lineno@Base 3.2.0
 rb_iseq_from_eval_p@Base 3.2.0
 rb_iseq_insns_info_encode_positions@Base 3.2.0
 rb_iseq_label@Base 3.2.0
 rb_iseq_line_no@Base 3.2.0
 rb_iseq_load@Base 3.2.0
 rb_iseq_local_variables@Base 3.2.0
 rb_iseq_location@Base 3.2.0
 rb_iseq_mark_insn_storage@Base 3.2.0
 rb_iseq_method_name@Base 3.2.0
 rb_iseq_new@Base 3.2.0
 rb_iseq_new_eval@Base 3.2.0~preview2
 rb_iseq_new_main@Base 3.2.0
 rb_iseq_new_top@Base 3.2.0
 rb_iseq_new_with_callback@Base 3.2.0
 rb_iseq_new_with_opt@Base 3.2.0
 rb_iseq_node_id@Base 3.2.0
 rb_iseq_only_kwparam_p@Base 3.2.0
 rb_iseq_only_optparam_p@Base 3.2.0
 rb_iseq_original_iseq@Base 3.2.0
 rb_iseq_parameters@Base 3.2.0
 rb_iseq_path@Base 3.2.0
 rb_iseq_realpath@Base 3.2.0
 rb_iseq_remove_coverage_all@Base 3.2.0
 rb_iseq_trace_set@Base 3.2.0
 rb_iseq_trace_set_all@Base 3.2.0
 rb_iseq_type@Base 3.2.0
 rb_iseqw_new@Base 3.2.0
 rb_iseqw_to_iseq@Base 3.2.0
 rb_iter_break@Base 3.2.0
 rb_iter_break_value@Base 3.2.0
 rb_iterate@Base 3.2.0
 rb_iv_get@Base 3.2.0
 rb_iv_set@Base 3.2.0
 rb_iv_tbl_copy@Base 3.2.0
 rb_ivar_count@Base 3.2.0
 rb_ivar_defined@Base 3.2.0
 rb_ivar_foreach@Base 3.2.0
 rb_ivar_generic_ivtbl_lookup@Base 3.2.0~preview2
 rb_ivar_get@Base 3.2.0
 rb_ivar_lookup@Base 3.2.0
 rb_ivar_set@Base 3.2.0
 rb_jump_tag@Base 3.2.0
 rb_keyword_error_new@Base 3.2.0
 rb_keyword_given_p@Base 3.2.0
 rb_last_status_get@Base 3.2.0
 rb_last_status_set@Base 3.2.0
 rb_lastline_get@Base 3.2.0
 rb_lastline_set@Base 3.2.0
 rb_ll2inum@Base 3.2.0
 rb_load@Base 3.2.0
 rb_load_file@Base 3.2.0
 rb_load_file_str@Base 3.2.0
 rb_load_protect@Base 3.2.0
 rb_loaderror@Base 3.2.0
 rb_loaderror_with_path@Base 3.2.0
 rb_locale_charmap@Base 3.2.0
 rb_locale_encindex@Base 3.2.0
 rb_locale_encoding@Base 3.2.0
 rb_locale_str_new@Base 3.2.0
 rb_locale_str_new_cstr@Base 3.2.0
 rb_mComparable@Base 3.2.0
 rb_mEnumerable@Base 3.2.0
 rb_mErrno@Base 3.2.0
 rb_mFileTest@Base 3.2.0
 rb_mGC@Base 3.2.0
 rb_mKernel@Base 3.2.0
 rb_mMath@Base 3.2.0
 rb_mProcess@Base 3.2.0
 rb_mRubyVMFrozenCore@Base 3.2.0
 rb_mWaitReadable@Base 3.2.0
 rb_mWaitWritable@Base 3.2.0
 rb_make_backtrace@Base 3.2.0
 rb_make_exception@Base 3.2.0
 rb_make_no_method_exception@Base 3.2.0
 rb_mark_generic_ivar@Base 3.2.0
 rb_mark_hash@Base 3.2.0
 rb_mark_set@Base 3.2.0
 rb_mark_tbl@Base 3.2.0
 rb_mark_tbl_no_pin@Base 3.2.0
 rb_marshal_define_compat@Base 3.2.0
 rb_marshal_dump@Base 3.2.0
 rb_marshal_load@Base 3.2.0
 rb_match_busy@Base 3.2.0
 rb_maygvl_fd_fix_cloexec@Base 3.2.0
 rb_mem_clear@Base 3.2.0
 rb_memcicmp@Base 3.2.0
 rb_memerror@Base 3.2.0
 rb_memhash@Base 3.2.0
 rb_memory_id@Base 3.2.0
 rb_memory_view_available_p@Base 3.2.0
 rb_memory_view_exported_object_registry@Base 3.2.0~preview2
 rb_memory_view_exported_object_registry_data_type@Base 3.2.0~preview2
 rb_memory_view_extract_item_members@Base 3.2.0~preview2
 rb_memory_view_fill_contiguous_strides@Base 3.2.0
 rb_memory_view_get@Base 3.2.0
 rb_memory_view_get_item@Base 3.2.0~rc1
 rb_memory_view_get_item_pointer@Base 3.2.0
 rb_memory_view_init_as_byte_array@Base 3.2.0
 rb_memory_view_is_column_major_contiguous@Base 3.2.0
 rb_memory_view_is_row_major_contiguous@Base 3.2.0
 rb_memory_view_item_size_from_format@Base 3.2.0
 rb_memory_view_parse_item_format@Base 3.2.0
 rb_memory_view_prepare_item_desc@Base 3.2.0~rc1
 rb_memory_view_register@Base 3.2.0
 rb_memory_view_release@Base 3.2.0
 rb_memsearch@Base 3.2.0
 rb_method_basic_definition_p@Base 3.2.0
 rb_method_boundp@Base 3.2.0
 rb_method_call@Base 3.2.0
 rb_method_call_kw@Base 3.2.0
 rb_method_call_with_block@Base 3.2.0
 rb_method_call_with_block_kw@Base 3.2.0
 rb_method_definition_create@Base 3.2.0
 rb_method_definition_eq@Base 3.2.0
 rb_method_definition_set@Base 3.2.0
 rb_method_entry@Base 3.2.0
 rb_method_entry_complement_defined_class@Base 3.2.0
 rb_method_entry_with_refinements@Base 3.2.0
 rb_method_iseq@Base 3.2.0
 rb_mjit_add_iseq_to_process@Base 3.2.0
 rb_mjit_bop_redefined@Base 3.2.0
 rb_mjit_cme_invalidate@Base 3.2.0
 rb_mjit_constant_ic_update@Base 3.2.0
 rb_mjit_constant_state_changed@Base 3.2.0
 rb_mjit_iseq_compile_info@Base 3.2.0
 rb_mjit_recompile_const@Base 3.2.0~rc1
 rb_mjit_recompile_exivar@Base 3.2.0
 rb_mjit_recompile_inlining@Base 3.2.0
 rb_mjit_recompile_ivar@Base 3.2.0
 rb_mjit_recompile_send@Base 3.2.0
 rb_mjit_tracing_invalidate_all@Base 3.2.0
 rb_mod_ancestors@Base 3.2.0
 rb_mod_class_variables@Base 3.2.0
 rb_mod_const_at@Base 3.2.0
 rb_mod_const_of@Base 3.2.0
 rb_mod_constants@Base 3.2.0
 rb_mod_include_p@Base 3.2.0
 rb_mod_included_modules@Base 3.2.0
 rb_mod_init_copy@Base 3.2.0
 rb_mod_method_arity@Base 3.2.0
 rb_mod_module_eval@Base 3.2.0
 rb_mod_module_exec@Base 3.2.0
 rb_mod_name@Base 3.2.0
 rb_mod_remove_const@Base 3.2.0
 rb_mod_remove_cvar@Base 3.2.0
 rb_mod_sys_fail@Base 3.2.0
 rb_mod_sys_fail_str@Base 3.2.0
 rb_mod_syserr_fail@Base 3.2.0
 rb_mod_syserr_fail_str@Base 3.2.0
 rb_mod_to_s@Base 3.2.0
 rb_module_new@Base 3.2.0
 rb_must_asciicompat@Base 3.2.0
 rb_mutex_lock@Base 3.2.0
 rb_mutex_locked_p@Base 3.2.0
 rb_mutex_new@Base 3.2.0
 rb_mutex_sleep@Base 3.2.0
 rb_mutex_synchronize@Base 3.2.0
 rb_mutex_trylock@Base 3.2.0
 rb_mutex_unlock@Base 3.2.0
 rb_mv_generic_ivar@Base 3.2.0
 rb_name_error@Base 3.2.0
 rb_name_error_str@Base 3.2.0
 rb_native_cond_broadcast@Base 3.2.0~preview2
 rb_native_cond_destroy@Base 3.2.0~preview2
 rb_native_cond_initialize@Base 3.2.0~preview2
 rb_native_cond_signal@Base 3.2.0~preview2
 rb_native_cond_timedwait@Base 3.2.0~preview2
 rb_native_cond_wait@Base 3.2.0~preview2
 rb_native_mutex_destroy@Base 3.2.0~preview2
 rb_native_mutex_initialize@Base 3.2.0~preview2
 rb_native_mutex_lock@Base 3.2.0~preview2
 rb_native_mutex_trylock@Base 3.2.0~preview2
 rb_native_mutex_unlock@Base 3.2.0~preview2
 rb_nativethread_lock_destroy@Base 3.2.0
 rb_nativethread_lock_initialize@Base 3.2.0
 rb_nativethread_lock_lock@Base 3.2.0
 rb_nativethread_lock_unlock@Base 3.2.0
 rb_nativethread_self@Base 3.2.0
 rb_need_block@Base 3.2.0
 rb_newobj@Base 3.2.0
 rb_newobj_of@Base 3.2.0
 rb_nil_to_s@Base 3.2.0
 rb_node_init@Base 3.2.0
 rb_nogvl@Base 3.2.0
 rb_notimplement@Base 3.2.0
 rb_num2dbl@Base 3.2.0
 rb_num2fix@Base 3.2.0
 rb_num2int@Base 3.2.0
 rb_num2ll@Base 3.2.0
 rb_num2long@Base 3.2.0
 rb_num2short@Base 3.2.0
 rb_num2uint@Base 3.2.0
 rb_num2ull@Base 3.2.0
 rb_num2ulong@Base 3.2.0
 rb_num2ushort@Base 3.2.0
 rb_num_coerce_bin@Base 3.2.0
 rb_num_coerce_bit@Base 3.2.0
 rb_num_coerce_cmp@Base 3.2.0
 rb_num_coerce_relop@Base 3.2.0
 rb_num_zerodiv@Base 3.2.0
 rb_obj_alloc@Base 3.2.0
 rb_obj_as_string@Base 3.2.0
 rb_obj_as_string_result@Base 3.2.0
 rb_obj_call_init@Base 3.2.0
 rb_obj_call_init_kw@Base 3.2.0
 rb_obj_class@Base 3.2.0
 rb_obj_classname@Base 3.2.0
 rb_obj_clone@Base 3.2.0
 rb_obj_copy_ivar@Base 3.2.0
 rb_obj_dup@Base 3.2.0
 rb_obj_encoding@Base 3.2.0
 rb_obj_equal@Base 3.2.0
 rb_obj_freeze@Base 3.2.0
 rb_obj_freeze_inline@Base 3.2.0
 rb_obj_frozen_p@Base 3.2.0
 rb_obj_gc_flags@Base 3.2.0
 rb_obj_hide@Base 3.2.0
 rb_obj_id@Base 3.2.0
 rb_obj_info@Base 3.2.0
 rb_obj_info_dump_loc@Base 3.2.0
 rb_obj_init_copy@Base 3.2.0
 rb_obj_instance_eval@Base 3.2.0
 rb_obj_instance_exec@Base 3.2.0
 rb_obj_instance_variables@Base 3.2.0
 rb_obj_is_fiber@Base 3.2.0
 rb_obj_is_instance_of@Base 3.2.0
 rb_obj_is_kind_of@Base 3.2.0
 rb_obj_is_method@Base 3.2.0
 rb_obj_is_proc@Base 3.2.0
 rb_obj_ivar_set@Base 3.2.0
 rb_obj_memsize_of@Base 3.2.0
 rb_obj_method@Base 3.2.0
 rb_obj_method_arity@Base 3.2.0
 rb_obj_not@Base 3.2.0
 rb_obj_not_equal@Base 3.2.0
 rb_obj_remove_instance_variable@Base 3.2.0
 rb_obj_respond_to@Base 3.2.0
 rb_obj_reveal@Base 3.2.0
 rb_obj_setup@Base 3.2.0
 rb_obj_singleton_methods@Base 3.2.0
 rb_obj_size@Base 3.2.0
 rb_objspace_data_type_memsize@Base 3.2.0
 rb_objspace_data_type_name@Base 3.2.0
 rb_objspace_each_objects@Base 3.2.0
 rb_objspace_each_objects_without_setup@Base 3.2.0
 rb_objspace_internal_object_p@Base 3.2.0
 rb_objspace_markable_object_p@Base 3.2.0
 rb_objspace_marked_object_p@Base 3.2.0
 rb_objspace_reachable_objects_from@Base 3.2.0
 rb_objspace_reachable_objects_from_root@Base 3.2.0
 rb_opts_exception_p@Base 3.2.0
 rb_out_of_int@Base 3.2.0
 rb_output_fs@Base 3.2.0
 rb_output_rs@Base 3.2.0
 rb_p@Base 3.2.0
 rb_parser_calloc@Base 3.2.0
 rb_parser_compile_file_path@Base 3.2.0
 rb_parser_compile_generic@Base 3.2.0
 rb_parser_compile_string@Base 3.2.0
 rb_parser_compile_string_path@Base 3.2.0
 rb_parser_dump_tree@Base 3.2.0
 rb_parser_encoding@Base 3.2.0
 rb_parser_end_seen_p@Base 3.2.0
 rb_parser_fatal@Base 3.2.0
 rb_parser_free@Base 3.2.0
 rb_parser_lex_state_name@Base 3.2.0
 rb_parser_malloc@Base 3.2.0
 rb_parser_new@Base 3.2.0
 rb_parser_printf@Base 3.2.0
 rb_parser_realloc@Base 3.2.0
 rb_parser_reg_compile@Base 3.2.0
 rb_parser_set_context@Base 3.2.0
 rb_parser_set_location@Base 3.2.0
 rb_parser_set_location_from_strterm_heredoc@Base 3.2.0
 rb_parser_set_location_of_delayed_token@Base 3.2.0
 rb_parser_set_location_of_dummy_end@Base 3.2.0
 rb_parser_set_location_of_heredoc_end@Base 3.2.0
 rb_parser_set_location_of_none@Base 3.2.0
 rb_parser_set_options@Base 3.2.0
 rb_parser_set_yydebug@Base 3.2.0
 rb_parser_show_bitstack@Base 3.2.0
 rb_parser_trace_lex_state@Base 3.2.0
 rb_path2class@Base 3.2.0
 rb_path_check@Base 3.2.0
 rb_path_to_class@Base 3.2.0
 rb_pipe@Base 3.2.0
 rb_postponed_job_flush@Base 3.2.0
 rb_postponed_job_register@Base 3.2.0
 rb_postponed_job_register_one@Base 3.2.0
 rb_prepend_module@Base 3.2.0
 rb_proc_arity@Base 3.2.0
 rb_proc_call@Base 3.2.0
 rb_proc_call_kw@Base 3.2.0
 rb_proc_call_with_block@Base 3.2.0
 rb_proc_call_with_block_kw@Base 3.2.0
 rb_proc_exec@Base 3.2.0
 rb_proc_get_iseq@Base 3.2.0
 rb_proc_isolate@Base 3.2.0
 rb_proc_isolate_bang@Base 3.2.0
 rb_proc_lambda_p@Base 3.2.0
 rb_proc_new@Base 3.2.0
 rb_proc_ractor_make_shareable@Base 3.2.0
 rb_proc_times@Base 3.2.0
 rb_profile_frame_absolute_path@Base 3.2.0
 rb_profile_frame_base_label@Base 3.2.0
 rb_profile_frame_classpath@Base 3.2.0
 rb_profile_frame_first_lineno@Base 3.2.0
 rb_profile_frame_full_label@Base 3.2.0
 rb_profile_frame_label@Base 3.2.0
 rb_profile_frame_method_name@Base 3.2.0
 rb_profile_frame_path@Base 3.2.0
 rb_profile_frame_qualified_method_name@Base 3.2.0
 rb_profile_frame_singleton_method_p@Base 3.2.0
 rb_profile_frames@Base 3.2.0
 rb_protect@Base 3.2.0
 rb_provide@Base 3.2.0
 rb_provided@Base 3.2.0
 rb_public_const_defined_from@Base 3.2.0
 rb_public_const_get_at@Base 3.2.0
 rb_public_const_get_from@Base 3.2.0
 rb_ractor_local_storage_delkey@Base 3.2.0~preview2
 rb_ractor_local_storage_ptr@Base 3.2.0~preview2
 rb_ractor_local_storage_ptr_newkey@Base 3.2.0~preview2
 rb_ractor_local_storage_ptr_set@Base 3.2.0~preview2
 rb_ractor_local_storage_type_free@Base 3.2.0~preview2
 rb_ractor_local_storage_value@Base 3.2.0~preview2
 rb_ractor_local_storage_value_lookup@Base 3.2.0
 rb_ractor_local_storage_value_newkey@Base 3.2.0~preview2
 rb_ractor_local_storage_value_set@Base 3.2.0~preview2
 rb_ractor_main_p_@Base 3.2.0
 rb_ractor_make_shareable@Base 3.2.0
 rb_ractor_make_shareable_copy@Base 3.2.0
 rb_ractor_shareable_p_continue@Base 3.2.0
 rb_ractor_stderr@Base 3.2.0
 rb_ractor_stderr_set@Base 3.2.0
 rb_ractor_stdin@Base 3.2.0
 rb_ractor_stdin_set@Base 3.2.0
 rb_ractor_stdout@Base 3.2.0
 rb_ractor_stdout_set@Base 3.2.0
 rb_raise@Base 3.2.0
 rb_rand_bytes_int32@Base 3.2.0
 rb_random_base_init@Base 3.2.0
 rb_random_bytes@Base 3.2.0
 rb_random_data_type_1_0@Base 3.2.0
 rb_random_int32@Base 3.2.0
 rb_random_mark@Base 3.2.0
 rb_random_real@Base 3.2.0
 rb_random_ulong_limited@Base 3.2.0
 rb_range_beg_len@Base 3.2.0
 rb_range_new@Base 3.2.0
 rb_range_values@Base 3.2.0
 rb_rational_den@Base 3.2.0
 rb_rational_new@Base 3.2.0
 rb_rational_num@Base 3.2.0
 rb_rational_raw@Base 3.2.0
 rb_readlink@Base 3.2.0
 rb_readwrite_sys_fail@Base 3.2.0
 rb_readwrite_syserr_fail@Base 3.2.0
 rb_refinement_new@Base 3.2.0
 rb_reg_adjust_startpos@Base 3.2.0
 rb_reg_alloc@Base 3.2.0
 rb_reg_backref_number@Base 3.2.0
 rb_reg_check_timeout@Base 3.2.0
 rb_reg_fragment_setenc@Base 3.2.0
 rb_reg_init_str@Base 3.2.0
 rb_reg_last_match@Base 3.2.0
 rb_reg_match2@Base 3.2.0
 rb_reg_match@Base 3.2.0
 rb_reg_match_last@Base 3.2.0
 rb_reg_match_post@Base 3.2.0
 rb_reg_match_pre@Base 3.2.0
 rb_reg_new@Base 3.2.0
 rb_reg_new_ary@Base 3.2.0
 rb_reg_new_str@Base 3.2.0
 rb_reg_nth_defined@Base 3.2.0
 rb_reg_nth_match@Base 3.2.0
 rb_reg_options@Base 3.2.0
 rb_reg_prepare_re@Base 3.2.0
 rb_reg_quote@Base 3.2.0
 rb_reg_regcomp@Base 3.2.0
 rb_reg_region_copy@Base 3.2.0
 rb_reg_regsub@Base 3.2.0
 rb_reg_search@Base 3.2.0
 rb_register_transcoder@Base 3.2.0
 rb_remove_event_hook@Base 3.2.0
 rb_remove_event_hook_with_data@Base 3.2.0
 rb_remove_method@Base 3.2.0
 rb_remove_method_id@Base 3.2.0
 rb_require@Base 3.2.0
 rb_require_string@Base 3.2.0
 rb_rescue2@Base 3.2.0
 rb_rescue@Base 3.2.0
 rb_reserved_fd_p@Base 3.2.0
 rb_reserved_word@Base 3.2.0
 rb_reset_coverages@Base 3.2.0
 rb_reset_random_seed@Base 3.2.0
 rb_resolve_me_location@Base 3.2.0
 rb_resolve_refined_method_callable@Base 3.2.0
 rb_respond_to@Base 3.2.0
 rb_resume_coverages@Base 3.2.0
 rb_rs@Base 3.2.0
 rb_ruby_debug_ptr@Base 3.2.0
 rb_ruby_verbose_ptr@Base 3.2.0
 rb_scan_args@Base 3.2.0
 rb_scan_args_kw@Base 3.2.0
 rb_set_class_path@Base 3.2.0
 rb_set_class_path_string@Base 3.2.0
 rb_set_coverages@Base 3.2.0
 rb_set_end_proc@Base 3.2.0
 rb_set_errinfo@Base 3.2.0
 rb_setup_fake_str@Base 3.2.0
 rb_shape_depth@Base 3.2.0
 rb_shape_each_shape@Base 3.2.0
 rb_shape_edges_count@Base 3.2.0
 rb_shape_frozen_shape_p@Base 3.2.0
 rb_shape_get_iv_index@Base 3.2.0
 rb_shape_get_next_iv_shape@Base 3.2.0
 rb_shape_get_shape_by_id@Base 3.2.0
 rb_shape_get_shape_id@Base 3.2.0
 rb_shape_id@Base 3.2.0
 rb_shape_memsize@Base 3.2.0
 rb_shape_obj_too_complex@Base 3.2.0
 rb_shape_set_shape@Base 3.2.0
 rb_singleton_class@Base 3.2.0
 rb_singleton_class_attached@Base 3.2.0
 rb_singleton_class_clone@Base 3.2.0
 rb_source_location_cstr@Base 3.2.0
 rb_sourcefile@Base 3.2.0
 rb_sourceline@Base 3.2.0
 rb_spawn@Base 3.2.0
 rb_spawn_err@Base 3.2.0
 rb_sprintf@Base 3.2.0
 rb_st_add_direct@Base 3.2.0
 rb_st_cleanup_safe@Base 3.2.0
 rb_st_clear@Base 3.2.0
 rb_st_copy@Base 3.2.0
 rb_st_delete@Base 3.2.0
 rb_st_delete_safe@Base 3.2.0
 rb_st_foreach@Base 3.2.0
 rb_st_foreach_check@Base 3.2.0
 rb_st_foreach_safe@Base 3.2.0
 rb_st_foreach_with_replace@Base 3.2.0
 rb_st_free_table@Base 3.2.0
 rb_st_get_key@Base 3.2.0
 rb_st_hash@Base 3.2.0
 rb_st_hash_end@Base 3.2.0
 rb_st_hash_start@Base 3.2.0
 rb_st_hash_uint32@Base 3.2.0
 rb_st_hash_uint@Base 3.2.0
 rb_st_init_numtable@Base 3.2.0
 rb_st_init_numtable_with_size@Base 3.2.0
 rb_st_init_strcasetable@Base 3.2.0
 rb_st_init_strcasetable_with_size@Base 3.2.0
 rb_st_init_strtable@Base 3.2.0
 rb_st_init_strtable_with_size@Base 3.2.0
 rb_st_init_table@Base 3.2.0
 rb_st_init_table_with_size@Base 3.2.0
 rb_st_insert2@Base 3.2.0
 rb_st_insert@Base 3.2.0
 rb_st_keys@Base 3.2.0
 rb_st_keys_check@Base 3.2.0
 rb_st_locale_insensitive_strcasecmp@Base 3.2.0
 rb_st_locale_insensitive_strncasecmp@Base 3.2.0
 rb_st_lookup@Base 3.2.0
 rb_st_memsize@Base 3.2.0
 rb_st_numcmp@Base 3.2.0
 rb_st_numhash@Base 3.2.0
 rb_st_shift@Base 3.2.0
 rb_st_table_size@Base 3.2.4-0nkmi1~noble
 rb_st_update@Base 3.2.0
 rb_st_values@Base 3.2.0
 rb_st_values_check@Base 3.2.0
 rb_stat_new@Base 3.2.0
 rb_stderr@Base 3.2.0
 rb_stdin@Base 3.2.0
 rb_stdout@Base 3.2.0
 rb_str2big_gmp@Base 3.2.0
 rb_str2big_karatsuba@Base 3.2.0
 rb_str2big_normal@Base 3.2.0
 rb_str2big_poweroftwo@Base 3.2.0
 rb_str2inum@Base 3.2.0
 rb_str_append@Base 3.2.0
 rb_str_buf_append@Base 3.2.0
 rb_str_buf_cat2@Base 3.2.0
 rb_str_buf_cat@Base 3.2.0
 rb_str_buf_cat_ascii@Base 3.2.0
 rb_str_buf_new@Base 3.2.0
 rb_str_buf_new_cstr@Base 3.2.0
 rb_str_capacity@Base 3.2.0
 rb_str_cat2@Base 3.2.0
 rb_str_cat@Base 3.2.0
 rb_str_cat_cstr@Base 3.2.0
 rb_str_catf@Base 3.2.0
 rb_str_cmp@Base 3.2.0
 rb_str_coderange_scan_restartable@Base 3.2.0
 rb_str_comparable@Base 3.2.0
 rb_str_concat@Base 3.2.0
 rb_str_concat_literals@Base 3.2.0
 rb_str_conv_enc@Base 3.2.0
 rb_str_conv_enc_opts@Base 3.2.0
 rb_str_drop_bytes@Base 3.2.0
 rb_str_dump@Base 3.2.0
 rb_str_dup@Base 3.2.0
 rb_str_dup_frozen@Base 3.2.0
 rb_str_ellipsize@Base 3.2.0
 rb_str_encode@Base 3.2.0
 rb_str_encode_ospath@Base 3.2.0
 rb_str_eql@Base 3.2.0
 rb_str_equal@Base 3.2.0
 rb_str_export@Base 3.2.0
 rb_str_export_locale@Base 3.2.0
 rb_str_export_to_enc@Base 3.2.0
 rb_str_format@Base 3.2.0
 rb_str_free@Base 3.2.0
 rb_str_freeze@Base 3.2.0
 rb_str_hash@Base 3.2.0
 rb_str_hash_cmp@Base 3.2.0
 rb_str_inspect@Base 3.2.0
 rb_str_intern@Base 3.2.0
 rb_str_length@Base 3.2.0
 rb_str_locktmp@Base 3.2.0
 rb_str_locktmp_ensure@Base 3.2.0
 rb_str_make_embedded@Base 3.2.0
 rb_str_memsize@Base 3.2.0
 rb_str_modify@Base 3.2.0
 rb_str_modify_expand@Base 3.2.0
 rb_str_new@Base 3.2.0
 rb_str_new_cstr@Base 3.2.0
 rb_str_new_frozen@Base 3.2.0
 rb_str_new_shared@Base 3.2.0
 rb_str_new_static@Base 3.2.0
 rb_str_new_with_class@Base 3.2.0
 rb_str_offset@Base 3.2.0
 rb_str_opt_plus@Base 3.2.0
 rb_str_plus@Base 3.2.0
 rb_str_reembeddable_p@Base 3.2.0
 rb_str_replace@Base 3.2.0
 rb_str_resize@Base 3.2.0
 rb_str_resurrect@Base 3.2.0
 rb_str_scrub@Base 3.2.0
 rb_str_set_len@Base 3.2.0
 rb_str_setter@Base 3.2.0
 rb_str_shared_replace@Base 3.2.0
 rb_str_size_as_embedded@Base 3.2.0
 rb_str_split@Base 3.2.0
 rb_str_strlen@Base 3.2.0
 rb_str_sublen@Base 3.2.0
 rb_str_subpos@Base 3.2.0
 rb_str_subseq@Base 3.2.0
 rb_str_substr@Base 3.2.0
 rb_str_succ@Base 3.2.0
 rb_str_times@Base 3.2.0
 rb_str_tmp_frozen_acquire@Base 3.2.0
 rb_str_tmp_frozen_release@Base 3.2.0
 rb_str_tmp_new@Base 3.2.0
 rb_str_to_dbl@Base 3.2.0
 rb_str_to_interned_str@Base 3.2.0~preview2
 rb_str_to_inum@Base 3.2.0
 rb_str_to_str@Base 3.2.0
 rb_str_unlocktmp@Base 3.2.0
 rb_str_update@Base 3.2.0
 rb_str_update_shared_ary@Base 3.2.0
 rb_str_upto_each@Base 3.2.0
 rb_str_upto_endless_each@Base 3.2.0
 rb_str_vcatf@Base 3.2.0
 rb_string_value@Base 3.2.0
 rb_string_value_cstr@Base 3.2.0
 rb_string_value_ptr@Base 3.2.0
 rb_struct_alloc@Base 3.2.0
 rb_struct_alloc_noinit@Base 3.2.0
 rb_struct_aref@Base 3.2.0
 rb_struct_aset@Base 3.2.0
 rb_struct_define@Base 3.2.0
 rb_struct_define_under@Base 3.2.0
 rb_struct_define_without_accessor@Base 3.2.0
 rb_struct_define_without_accessor_under@Base 3.2.0
 rb_struct_getmember@Base 3.2.0
 rb_struct_initialize@Base 3.2.0
 rb_struct_members@Base 3.2.0
 rb_struct_new@Base 3.2.0
 rb_struct_s_members@Base 3.2.0
 rb_struct_size@Base 3.2.0
 rb_suspend_coverages@Base 3.2.0
 rb_sym2id@Base 3.2.0
 rb_sym2str@Base 3.2.0
 rb_sym_all_symbols@Base 3.2.0
 rb_sym_immortal_count@Base 3.2.0
 rb_sym_proc_call@Base 3.2.0
 rb_sym_to_proc@Base 3.2.0
 rb_sym_to_s@Base 3.2.0
 rb_symname_p@Base 3.2.0
 rb_sys_fail@Base 3.2.0
 rb_sys_fail_path_in@Base 3.2.0
 rb_sys_fail_str@Base 3.2.0
 rb_sys_warning@Base 3.2.0
 rb_syserr_fail@Base 3.2.0
 rb_syserr_fail_path_in@Base 3.2.0
 rb_syserr_fail_str@Base 3.2.0
 rb_syserr_new@Base 3.2.0
 rb_syserr_new_path_in@Base 3.2.0
 rb_syserr_new_str@Base 3.2.0
 rb_syswait@Base 3.2.0
 rb_thread_add_event_hook2@Base 3.2.0
 rb_thread_add_event_hook@Base 3.2.0
 rb_thread_alone@Base 3.2.0
 rb_thread_atfork@Base 3.2.0
 rb_thread_atfork_before_exec@Base 3.2.0
 rb_thread_call_with_gvl@Base 3.2.0
 rb_thread_call_without_gvl2@Base 3.2.0
 rb_thread_call_without_gvl@Base 3.2.0
 rb_thread_check_ints@Base 3.2.0
 rb_thread_check_trap_pending@Base 3.2.0
 rb_thread_create@Base 3.2.0
 rb_thread_current@Base 3.2.0
 rb_thread_fd_close@Base 3.2.0
 rb_thread_fd_select@Base 3.2.0
 rb_thread_fd_writable@Base 3.2.0
 rb_thread_interrupted@Base 3.2.0
 rb_thread_io_blocking_region@Base 3.2.0
 rb_thread_kill@Base 3.2.0
 rb_thread_local_aref@Base 3.2.0
 rb_thread_local_aset@Base 3.2.0
 rb_thread_main@Base 3.2.0
 rb_thread_remove_event_hook@Base 3.2.0
 rb_thread_remove_event_hook_with_data@Base 3.2.0
 rb_thread_run@Base 3.2.0
 rb_thread_schedule@Base 3.2.0
 rb_thread_sleep@Base 3.2.0
 rb_thread_sleep_deadly@Base 3.2.0
 rb_thread_sleep_forever@Base 3.2.0
 rb_thread_stop@Base 3.2.0
 rb_thread_wait_fd@Base 3.2.0
 rb_thread_wait_for@Base 3.2.0
 rb_thread_wakeup@Base 3.2.0
 rb_thread_wakeup_alive@Base 3.2.0
 rb_threadptr_execute_interrupts@Base 3.2.0
 rb_throw@Base 3.2.0
 rb_throw_obj@Base 3.2.0
 rb_time_interval@Base 3.2.0
 rb_time_nano_new@Base 3.2.0
 rb_time_new@Base 3.2.0
 rb_time_num_new@Base 3.2.0
 rb_time_timespec@Base 3.2.0
 rb_time_timespec_interval@Base 3.2.0
 rb_time_timespec_new@Base 3.2.0
 rb_time_timeval@Base 3.2.0
 rb_time_utc_offset@Base 3.2.0
 rb_timespec_now@Base 3.2.0
 rb_to_encoding@Base 3.2.0
 rb_to_encoding_index@Base 3.2.0
 rb_to_float@Base 3.2.0
 rb_to_hash_type@Base 3.2.0
 rb_to_id@Base 3.2.0
 rb_to_int@Base 3.2.0
 rb_to_symbol@Base 3.2.0
 rb_tracearg_binding@Base 3.2.0
 rb_tracearg_callee_id@Base 3.2.0
 rb_tracearg_defined_class@Base 3.2.0
 rb_tracearg_event@Base 3.2.0
 rb_tracearg_event_flag@Base 3.2.0
 rb_tracearg_from_tracepoint@Base 3.2.0
 rb_tracearg_lineno@Base 3.2.0
 rb_tracearg_method_id@Base 3.2.0
 rb_tracearg_object@Base 3.2.0
 rb_tracearg_path@Base 3.2.0
 rb_tracearg_raised_exception@Base 3.2.0
 rb_tracearg_return_value@Base 3.2.0
 rb_tracearg_self@Base 3.2.0
 rb_tracepoint_disable@Base 3.2.0
 rb_tracepoint_enable@Base 3.2.0
 rb_tracepoint_enabled_p@Base 3.2.0
 rb_tracepoint_new@Base 3.2.0
 rb_true_to_s@Base 3.2.0
 rb_typeddata_inherited_p@Base 3.2.0
 rb_typeddata_is_kind_of@Base 3.2.0
 rb_uint2big@Base 3.2.0
 rb_uint2inum@Base 3.2.0
 rb_ull2inum@Base 3.2.0
 rb_undef@Base 3.2.0
 rb_undef_alloc_func@Base 3.2.0
 rb_undef_method@Base 3.2.0
 rb_undefine_finalizer@Base 3.2.0
 rb_unexpected_type@Base 3.2.0
 rb_update_max_fd@Base 3.2.0
 rb_usascii_encindex@Base 3.2.0
 rb_usascii_encoding@Base 3.2.0
 rb_usascii_str_new@Base 3.2.0
 rb_usascii_str_new_cstr@Base 3.2.0
 rb_usascii_str_new_static@Base 3.2.0
 rb_utf8_encindex@Base 3.2.0
 rb_utf8_encoding@Base 3.2.0
 rb_utf8_str_new@Base 3.2.0
 rb_utf8_str_new_cstr@Base 3.2.0
 rb_utf8_str_new_static@Base 3.2.0
 rb_uv_to_utf8@Base 3.2.0
 rb_vm_call0@Base 3.2.0
 rb_vm_call_kw@Base 3.2.0
 rb_vm_call_with_refinements@Base 3.2.0
 rb_vm_empty_cc@Base 3.2.0
 rb_vm_empty_cc_for_super@Base 3.2.0
 rb_vm_exec@Base 3.2.0
 rb_vm_get_ruby_level_next_cfp@Base 3.2.0
 rb_vm_insn_len_info@Base 3.2.0
 rb_vm_insn_name_base@Base 3.2.0
 rb_vm_insn_name_offset@Base 3.2.0
 rb_vm_insn_op_base@Base 3.2.0
 rb_vm_insn_op_offset@Base 3.2.0
 rb_vm_invoke_bmethod@Base 3.2.0
 rb_vm_invoke_proc@Base 3.2.0
 rb_vm_localjump_error@Base 3.2.0
 rb_vm_lock_enter_body@Base 3.2.0~preview2
 rb_vm_lock_enter_body_cr@Base 3.2.0~preview2
 rb_vm_lock_enter_body_nb@Base 3.2.0~preview2
 rb_vm_lock_leave_body@Base 3.2.0~preview2
 rb_vm_make_proc_lambda@Base 3.2.0
 rb_vm_max_insn_name_size@Base 3.2.0
 rb_vm_search_method_slowpath@Base 3.2.0
 rb_vrescue2@Base 3.2.0
 rb_vsprintf@Base 3.2.0
 rb_wait_for_single_fd@Base 3.2.0
 rb_waitpid@Base 3.2.0
 rb_warn@Base 3.2.0
 rb_warning@Base 3.2.0
 rb_warning_category_enabled_p@Base 3.2.0
 rb_wb_protected_newobj_of@Base 3.2.0
 rb_wb_unprotected_newobj_of@Base 3.2.0
 rb_write_error2@Base 3.2.0
 rb_write_error@Base 3.2.0
 rb_write_error_str@Base 3.2.0
 rb_yield@Base 3.2.0
 rb_yield_block@Base 3.2.0
 rb_yield_splat@Base 3.2.0
 rb_yield_splat_kw@Base 3.2.0
 rb_yield_values2@Base 3.2.0
 rb_yield_values@Base 3.2.0
 rb_yield_values_kw@Base 3.2.0
 rb_yjit_before_ractor_spawn@Base 3.2.4-0nkmi1~noble
 rb_yjit_bop_redefined@Base 3.2.4-0nkmi1~noble
 rb_yjit_call_threshold@Base 3.2.4-0nkmi1~noble
 rb_yjit_cme_invalidate@Base 3.2.4-0nkmi1~noble
 rb_yjit_code_gc@Base 3.2.4-0nkmi1~noble
 rb_yjit_collect_binding_alloc@Base 3.2.4-0nkmi1~noble
 rb_yjit_collect_binding_set@Base 3.2.4-0nkmi1~noble
 rb_yjit_collect_vm_usage_insn@Base 3.2.4-0nkmi1~noble
 rb_yjit_constant_ic_update@Base 3.2.4-0nkmi1~noble
 rb_yjit_constant_state_changed@Base 3.2.4-0nkmi1~noble
 rb_yjit_count_side_exit_op@Base 3.2.4-0nkmi1~noble
 rb_yjit_disasm_iseq@Base 3.2.4-0nkmi1~noble
 rb_yjit_enabled_p@Base 3.2.4-0nkmi1~noble
 rb_yjit_get_exit_locations@Base 3.2.4-0nkmi1~noble
 rb_yjit_get_stats@Base 3.2.4-0nkmi1~noble
 rb_yjit_init_rust@Base 3.2.4-0nkmi1~noble
 rb_yjit_insns_compiled@Base 3.2.4-0nkmi1~noble
 rb_yjit_iseq_free@Base 3.2.4-0nkmi1~noble
 rb_yjit_iseq_gen_entry_point@Base 3.2.4-0nkmi1~noble
 rb_yjit_iseq_mark@Base 3.2.4-0nkmi1~noble
 rb_yjit_iseq_update_references@Base 3.2.4-0nkmi1~noble
 rb_yjit_parse_option@Base 3.2.4-0nkmi1~noble
 rb_yjit_record_exit_stack@Base 3.2.4-0nkmi1~noble
 rb_yjit_reset_stats_bang@Base 3.2.4-0nkmi1~noble
 rb_yjit_root_mark@Base 3.2.4-0nkmi1~noble
 rb_yjit_simulate_oom_bang@Base 3.2.4-0nkmi1~noble
 rb_yjit_stats_enabled_p@Base 3.2.4-0nkmi1~noble
 rb_yjit_trace_exit_locations_enabled_p@Base 3.2.4-0nkmi1~noble
 rb_yjit_tracing_invalidate_all@Base 3.2.4-0nkmi1~noble
 rb_yytnamerr@Base 3.2.0
 ruby_Init_Continuation_body@Base 3.2.0
 ruby_api_version@Base 3.2.0
 ruby_brace_glob@Base 3.2.0
 ruby_cleanup@Base 3.2.0
 ruby_copyright@Base 3.2.0
 ruby_current_ec@Base 3.2.0~preview2
 ruby_current_vm_ptr@Base 3.2.0
 ruby_debug_breakpoint@Base 3.2.0
 ruby_debug_counter_get@Base 3.2.0
 ruby_debug_counter_reset@Base 3.2.0
 ruby_debug_counter_show_at_exit@Base 3.2.0
 ruby_debug_print_id@Base 3.2.0
 ruby_debug_print_indent@Base 3.2.0
 ruby_debug_print_node@Base 3.2.0
 ruby_debug_print_value@Base 3.2.0
 ruby_debug_printf@Base 3.2.0
 ruby_default_signal@Base 3.2.0
 ruby_description@Base 3.2.0
 ruby_digit36_to_number_table@Base 3.2.0
 ruby_each_words@Base 3.2.0
 ruby_enc_find_basename@Base 3.2.0
 ruby_enc_find_extname@Base 3.2.0
 ruby_engine@Base 3.2.0
 ruby_exec_node@Base 3.2.0
 ruby_executable_node@Base 3.2.0
 ruby_finalize@Base 3.2.0
 ruby_float_mod@Base 3.2.0
 ruby_getcwd@Base 3.2.0
 ruby_glob@Base 3.2.0
 ruby_global_name_punct_bits@Base 3.2.0
 ruby_hexdigits@Base 3.2.0
 ruby_incpush@Base 3.2.0
 ruby_init@Base 3.2.0
 ruby_init_loadpath@Base 3.2.0
 ruby_init_setproctitle@Base 3.2.0
 ruby_init_stack@Base 3.2.0
 ruby_malloc_size_overflow@Base 3.2.0
 ruby_native_thread_p@Base 3.2.0
 ruby_node_name@Base 3.2.0
 ruby_options@Base 3.2.0
 ruby_patchlevel@Base 3.2.0
 ruby_platform@Base 3.2.0
 ruby_posix_signal@Base 3.2.0
 ruby_process_options@Base 3.2.0
 ruby_prog_init@Base 3.2.0
 ruby_release_date@Base 3.2.0
 ruby_reset_leap_second_info@Base 3.2.0
 ruby_reset_timezone@Base 3.2.0
 ruby_run_node@Base 3.2.0
 ruby_scan_digits@Base 3.2.0
 ruby_scan_hex@Base 3.2.0
 ruby_scan_oct@Base 3.2.0
 ruby_script@Base 3.2.0
 ruby_set_argv@Base 3.2.0
 ruby_set_debug_option@Base 3.2.0
 ruby_set_script_name@Base 3.2.0
 ruby_setenv@Base 3.2.0
 ruby_setup@Base 3.2.0
 ruby_show_copyright@Base 3.2.0
 ruby_show_version@Base 3.2.0
 ruby_sig_finalize@Base 3.2.0
 ruby_signal_name@Base 3.2.0
 ruby_single_main_ractor@Base 3.2.0~preview2
 ruby_sized_xfree@Base 3.2.0
 ruby_sized_xrealloc2@Base 3.2.0
 ruby_sized_xrealloc@Base 3.2.0
 ruby_snprintf@Base 3.2.0
 ruby_stack_check@Base 3.2.0
 ruby_stack_length@Base 3.2.0
 ruby_stop@Base 3.2.0
 ruby_strdup@Base 3.2.0
 ruby_strtod@Base 3.2.0
 ruby_strtoul@Base 3.2.0
 ruby_sysinit@Base 3.2.0
 ruby_thread_has_gvl_p@Base 3.2.0
 ruby_unsetenv@Base 3.2.0
 ruby_version@Base 3.2.0
 ruby_vm_at_exit@Base 3.2.0
 ruby_vm_const_missing_count@Base 3.2.0
 ruby_vm_constant_cache_invalidations@Base 3.2.0
 ruby_vm_constant_cache_misses@Base 3.2.0
 ruby_vm_destruct@Base 3.2.0
 ruby_vm_event_enabled_global_flags@Base 3.2.0
 ruby_vm_event_flags@Base 3.2.0
 ruby_vm_event_local_num@Base 3.2.0
 ruby_vm_global_cvar_state@Base 3.2.0
 ruby_vm_redefined_flag@Base 3.2.0
 ruby_vsnprintf@Base 3.2.0
 ruby_xcalloc@Base 3.2.0
 ruby_xfree@Base 3.2.0
 ruby_xmalloc2@Base 3.2.0
 ruby_xmalloc@Base 3.2.0
 ruby_xrealloc2@Base 3.2.0
 ruby_xrealloc@Base 3.2.0
 rust_begin_unwind@Base 3.2.4-0nkmi1~noble
 rust_eh_personality@Base 3.2.4-0nkmi1~noble
 rust_panic@Base 3.2.4-0nkmi1~noble
 setproctitle@Base 3.2.0
